(lp0
(S'# ##'
p1
S'www.cppreference.com/wiki/preprocessor/sharp'
p2
S'preprocessor'
p3
S'manipulate strings'
p4
tp5
a(S'#define'
p6
S'www.cppreference.com/wiki/preprocessor/define'
p7
S'preprocessor'
p8
S'define macrodefinition'
p9
tp10
a(S'#error'
p11
S'www.cppreference.com/wiki/preprocessor/error'
p12
S'preprocessor'
p13
S'display an error message'
p14
tp15
a(S'#if'
p16
S'www.cppreference.com/wiki/preprocessor/preprocessor_if'
p17
S'preprocessor'
p18
S'conditional operators'
p19
tp20
a(S'#ifdef'
p21
S'www.cppreference.com/wiki/preprocessor/preprocessor_if'
p22
S'preprocessor'
p23
S'conditional operators'
p24
tp25
a(S'#ifndef'
p26
S'www.cppreference.com/wiki/preprocessor/preprocessor_if'
p27
S'preprocessor'
p28
S'conditional operators'
p29
tp30
a(S'#else'
p31
S'www.cppreference.com/wiki/preprocessor/preprocessor_if'
p32
S'preprocessor'
p33
S'conditional operators'
p34
tp35
a(S'#elif'
p36
S'www.cppreference.com/wiki/preprocessor/preprocessor_if'
p37
S'preprocessor'
p38
S'conditional operators'
p39
tp40
a(S'#endif'
p41
S'www.cppreference.com/wiki/preprocessor/preprocessor_if'
p42
S'preprocessor'
p43
S'conditional operators'
p44
tp45
a(S'#include'
p46
S'www.cppreference.com/wiki/preprocessor/include'
p47
S'preprocessor'
p48
S'insert the contents of another file'
p49
tp50
a(S'#line'
p51
S'www.cppreference.com/wiki/preprocessor/line'
p52
S'preprocessor'
p53
S'set line and file information'
p54
tp55
a(S'#pragma'
p56
S'www.cppreference.com/wiki/preprocessor/pragma'
p57
S'preprocessor'
p58
S'implementation specific command'
p59
tp60
a(S'#undef'
p61
S'www.cppreference.com/wiki/preprocessor/undef'
p62
S'preprocessor'
p63
S'used to undefine macrodefinitions'
p64
tp65
a(S'#warning'
p66
S'www.cppreference.com/wiki/preprocessor/warning'
p67
S'preprocessor'
p68
S'display a warning message'
p69
tp70
a(S'predefined preprocessor variables'
p71
S'www.cppreference.com/wiki/preprocessor/preprocessor_vars'
p72
S'preprocessor'
p73
S'miscellaneous preprocessor variables'
p74
tp75
a(S'break'
p76
S'www.cppreference.com/wiki/keywords/break'
p77
S'keywords'
p78
S'break out of a loop'
p79
tp80
a(S'case'
p81
S'www.cppreference.com/wiki/keywords/case'
p82
S'keywords'
p83
S'in switch statement, defines a value label'
p84
tp85
a(S'else'
p86
S'www.cppreference.com/wiki/keywords/else'
p87
S'keywords'
p88
S'alternate case for an if statement'
p89
tp90
a(S'goto'
p91
S'www.cppreference.com/wiki/keywords/goto'
p92
S'keywords'
p93
S'jump to a label (within the same function)'
p94
tp95
a(S'if'
p96
S'www.cppreference.com/wiki/keywords/if'
p97
S'keywords'
p98
S'execute code based on the result of a test'
p99
tp100
a(S'for'
p101
S'www.cppreference.com/wiki/keywords/for'
p102
S'keywords'
p103
S'looping construct'
p104
tp105
a(S'do'
p106
S'www.cppreference.com/wiki/keywords/do'
p107
S'keywords'
p108
S'begin of a do-while looping construct'
p109
tp110
a(S'while'
p111
S'www.cppreference.com/wiki/keywords/while'
p112
S'keywords'
p113
S'begin of while or end of do-while looping constructs'
p114
tp115
a(S'continue'
p116
S'www.cppreference.com/wiki/keywords/continue'
p117
S'keywords'
p118
S'bypass iterations of a loop'
p119
tp120
a(S'default'
p121
S'www.cppreference.com/wiki/keywords/default'
p122
S'keywords'
p123
S'default handler in a case statement (in C++0x also force default implementation of a method)'
p124
tp125
a(S'switch'
p126
S'www.cppreference.com/wiki/keywords/switch'
p127
S'keywords'
p128
S'execute code based on different possible values for a variable'
p129
tp130
a(S'return'
p131
S'www.cppreference.com/wiki/keywords/return'
p132
S'keywords'
p133
S'return from a function'
p134
tp135
a(S'const_cast'
p136
S'www.cppreference.com/wiki/keywords/const_cast'
p137
S'keywords'
p138
S'cast that only allows to strip const or volatile modifiers'
p139
tp140
a(S'dynamic_cast'
p141
S'www.cppreference.com/wiki/keywords/dynamic_cast'
p142
S'keywords'
p143
S'cast a pointer/reference from base (polymorphic) class to derived class, with runtime error reporting, if cast is not correct'
p144
tp145
a(S'reinterpret_cast'
p146
S'www.cppreference.com/wiki/keywords/reinterpret_cast'
p147
S'keywords'
p148
S'cast between any pointers or any integer with no change, which does not strip const or volatile modifiers'
p149
tp150
a(S'sizeof'
p151
S'www.cppreference.com/wiki/keywords/sizeof'
p152
S'keywords'
p153
S'return the size of a variable or type'
p154
tp155
a(S'static_cast'
p156
S'www.cppreference.com/wiki/keywords/static_cast'
p157
S'keywords'
p158
S'cast that can be done implicitly in reverse, with changing the pointer for derived class, if required'
p159
tp160
a(S'this'
p161
S'www.cppreference.com/wiki/keywords/this'
p162
S'keywords'
p163
S'a pointer to the current object inside a classs method'
p164
tp165
a(S'and'
p166
S'www.cppreference.com/wiki/keywords/../alternative_operators'
p167
S'keywords'
p168
S'alternative to &amp;&amp; operator'
p169
tp170
a(S'and_eq'
p171
S'www.cppreference.com/wiki/keywords/../alternative_operators'
p172
S'keywords'
p173
S'alternative to &amp;= operator'
p174
tp175
a(S'bitand'
p176
S'www.cppreference.com/wiki/keywords/../alternative_operators'
p177
S'keywords'
p178
S'alternative to bitwise &amp; operator'
p179
tp180
a(S'bitor'
p181
S'www.cppreference.com/wiki/keywords/../alternative_operators'
p182
S'keywords'
p183
S'alternative to | operator'
p184
tp185
a(S'compl'
p186
S'www.cppreference.com/wiki/keywords/../alternative_operators'
p187
S'keywords'
p188
S'alternative to ~ operator'
p189
tp190
a(S'not'
p191
S'www.cppreference.com/wiki/keywords/../alternative_operators'
p192
S'keywords'
p193
S'alternative to ! operator'
p194
tp195
a(S'not_eq'
p196
S'www.cppreference.com/wiki/keywords/../alternative_operators'
p197
S'keywords'
p198
S'alternative to != operator'
p199
tp200
a(S'or'
p201
S'www.cppreference.com/wiki/keywords/../alternative_operators'
p202
S'keywords'
p203
S'alternative to || operator'
p204
tp205
a(S'or_eq'
p206
S'www.cppreference.com/wiki/keywords/../alternative_operators'
p207
S'keywords'
p208
S'alternative to |= operator'
p209
tp210
a(S'xor'
p211
S'www.cppreference.com/wiki/keywords/../alternative_operators'
p212
S'keywords'
p213
S'alternative to ^ operator'
p214
tp215
a(S'xor_eq'
p216
S'www.cppreference.com/wiki/keywords/../alternative_operators'
p217
S'keywords'
p218
S'alternative to ^= operator'
p219
tp220
a(S'new'
p221
S'www.cppreference.com/wiki/keywords/new'
p222
S'keywords'
p223
S'create an object, allocating memory from dynamic pool'
p224
tp225
a(S'delete'
p226
S'www.cppreference.com/wiki/keywords/delete'
p227
S'keywords'
p228
S'make dynamic memory available (in C++0x also remove a method that would be provided by default otherwise)'
p229
tp230
a(S'operator'
p231
S'www.cppreference.com/wiki/keywords/operator'
p232
S'keywords'
p233
S'create overloaded operator functions'
p234
tp235
a(S'int'
p236
S'www.cppreference.com/wiki/keywords/int'
p237
S'keywords'
p238
S'name of a builtin default integer type'
p239
tp240
a(S'long'
p241
S'www.cppreference.com/wiki/keywords/long'
p242
S'keywords'
p243
S'name of a builtin long integer variable'
p244
tp245
a(S'typedef'
p246
S'www.cppreference.com/wiki/keywords/typedef'
p247
S'keywords'
p248
S'create a new type name from an existing type'
p249
tp250
a(S'bool'
p251
S'www.cppreference.com/wiki/keywords/bool'
p252
S'keywords'
p253
S'name of builtin boolean type'
p254
tp255
a(S'char'
p256
S'www.cppreference.com/wiki/keywords/char'
p257
S'keywords'
p258
S'name of builtin character type (also 8-bit integer type)'
p259
tp260
a(S'class'
p261
S'www.cppreference.com/wiki/keywords/class'
p262
S'keywords'
p263
S'declare a class'
p264
tp265
a(S'float'
p266
S'www.cppreference.com/wiki/keywords/float'
p267
S'keywords'
p268
S'name of a single precision floating-point type'
p269
tp270
a(S'double'
p271
S'www.cppreference.com/wiki/keywords/double'
p272
S'keywords'
p273
S'name of a builtin double precision floating-point type'
p274
tp275
a(S'enum'
p276
S'www.cppreference.com/wiki/keywords/enum'
p277
S'keywords'
p278
S'declare an enumeration type'
p279
tp280
a(S'struct'
p281
S'www.cppreference.com/wiki/keywords/struct'
p282
S'keywords'
p283
S'define a new structure'
p284
tp285
a(S'void'
p286
S'www.cppreference.com/wiki/keywords/void'
p287
S'keywords'
p288
S'name of a builtin void type or declare no return value in function'
p289
tp290
a(S'wchar_t'
p291
S'www.cppreference.com/wiki/keywords/wchar_t'
p292
S'keywords'
p293
S'name of a builtin wide-character type'
p294
tp295
a(S'short'
p296
S'www.cppreference.com/wiki/keywords/short'
p297
S'keywords'
p298
S'declare a short integer variable'
p299
tp300
a(S'union'
p301
S'www.cppreference.com/wiki/keywords/union'
p302
S'keywords'
p303
S'a structure that assigns multiple variables to the same memory location'
p304
tp305
a(S'template'
p306
S'www.cppreference.com/wiki/keywords/template'
p307
S'keywords'
p308
S'create generic functions or classes'
p309
tp310
a(S'auto'
p311
S'www.cppreference.com/wiki/keywords/auto'
p312
S'keywords'
p313
S'automatically detect variable type from initializer expression ('
p314
tp315
a(S'inline'
p316
S'www.cppreference.com/wiki/keywords/inline'
p317
S'keywords'
p318
S'declare that a function is to be expanded in place when called (or to undergo vague linkage, if expanding is not possible)'
p319
tp320
a(S'export'
p321
S'www.cppreference.com/wiki/keywords/export'
p322
S'keywords'
p323
S'states that the following template declaration will be defined in another compilation unit'
p324
tp325
a(S'extern'
p326
S'www.cppreference.com/wiki/keywords/extern'
p327
S'keywords'
p328
S'declares an external linkage for a variable (if not initialized, provides only forwarding declaration for a variable to be declared either later or in another compilation unit) or (extern C) declares C linkage for a function'
p329
tp330
a(S'private'
p331
S'www.cppreference.com/wiki/keywords/private'
p332
S'keywords'
p333
S'declare private members of a class'
p334
tp335
a(S'protected'
p336
S'www.cppreference.com/wiki/keywords/protected'
p337
S'keywords'
p338
S'declare protected members of a class'
p339
tp340
a(S'public'
p341
S'www.cppreference.com/wiki/keywords/public'
p342
S'keywords'
p343
S'declare public members of a class'
p344
tp345
a(S'signed'
p346
S'www.cppreference.com/wiki/keywords/signed'
p347
S'keywords'
p348
S'modify variable type declarations'
p349
tp350
a(S'unsigned'
p351
S'www.cppreference.com/wiki/keywords/unsigned'
p352
S'keywords'
p353
S'modifier for integer types that makes them only positive range'
p354
tp355
a(S'register'
p356
S'www.cppreference.com/wiki/keywords/register'
p357
S'keywords'
p358
S'request that a variable be implemented by machines register rather than on functions stack'
p359
tp360
a(S'virtual'
p361
S'www.cppreference.com/wiki/keywords/virtual'
p362
S'keywords'
p363
S'create a function that can be overridden by a derived class'
p364
tp365
a(S'static'
p366
S'www.cppreference.com/wiki/keywords/static'
p367
S'keywords'
p368
S'create permanent storage for a variable'
p369
tp370
a(S'volatile'
p371
S'www.cppreference.com/wiki/keywords/volatile'
p372
S'keywords'
p373
S'warn the compiler about variables that can be modified unexpectedly'
p374
tp375
a(S'typename'
p376
S'www.cppreference.com/wiki/keywords/typename'
p377
S'keywords'
p378
S'declare that the identifier next to this word must be always interpreted as type (and not a variable or function), also declares type parameter for template'
p379
tp380
a(S'friend'
p381
S'www.cppreference.com/wiki/keywords/friend'
p382
S'keywords'
p383
S'grant non-member function access to private data'
p384
tp385
a(S'explicit'
p386
S'www.cppreference.com/wiki/keywords/explicit'
p387
S'keywords'
p388
S'make a classs one-argument constructor not allowed to be used for implicit conversions'
p389
tp390
a(S'mutable'
p391
S'www.cppreference.com/wiki/keywords/mutable'
p392
S'keywords'
p393
S'wipe constness from a classs field, when whole object is const'
p394
tp395
a(S'const'
p396
S'www.cppreference.com/wiki/keywords/const'
p397
S'keywords'
p398
S'modifier for a variable, a pointer to, or a reference to, which states that the variable cannot be modified'
p399
tp400
a(S'try'
p401
S'www.cppreference.com/wiki/keywords/try'
p402
S'keywords'
p403
S'execute code that can throw an exception'
p404
tp405
a(S'catch'
p406
S'www.cppreference.com/wiki/keywords/catch'
p407
S'keywords'
p408
S'handles exceptions from throw'
p409
tp410
a(S'throw'
p411
S'www.cppreference.com/wiki/keywords/throw'
p412
S'keywords'
p413
S'throws an exception'
p414
tp415
a(S'asm'
p416
S'www.cppreference.com/wiki/keywords/asm'
p417
S'keywords'
p418
S'insert an assembly instruction'
p419
tp420
a(S'false'
p421
S'www.cppreference.com/wiki/keywords/false'
p422
S'keywords'
p423
S'a constant representing the boolean false value'
p424
tp425
a(S'true'
p426
S'www.cppreference.com/wiki/keywords/true'
p427
S'keywords'
p428
S'a constant representing the boolean true value'
p429
tp430
a(S'namespace'
p431
S'www.cppreference.com/wiki/keywords/namespace'
p432
S'keywords'
p433
S'partition the global namespace by defining a scope'
p434
tp435
a(S'using'
p436
S'www.cppreference.com/wiki/keywords/using'
p437
S'keywords'
p438
S'import complete or partial namespaces into the current scope'
p439
tp440
a(S'typeid'
p441
S'www.cppreference.com/wiki/keywords/typeid'
p442
S'keywords'
p443
S'describes an object'
p444
tp445
a(S'fopen'
p446
S'www.cppreference.com/wiki/io/c/fopen'
p447
S'io/c'
p448
S'open a file'
p449
tp450
a(S'freopen'
p451
S'www.cppreference.com/wiki/io/c/freopen'
p452
S'io/c'
p453
S'open an existing stream with a different name'
p454
tp455
a(S'fflush'
p456
S'www.cppreference.com/wiki/io/c/fflush'
p457
S'io/c'
p458
S'writes the contents of the output buffer'
p459
tp460
a(S'fclose'
p461
S'www.cppreference.com/wiki/io/c/fclose'
p462
S'io/c'
p463
S'close a file'
p464
tp465
a(S'setbuf'
p466
S'www.cppreference.com/wiki/io/c/setbuf'
p467
S'io/c'
p468
S'set the buffer for a specific stream'
p469
tp470
a(S'setvbuf'
p471
S'www.cppreference.com/wiki/io/c/setvbuf'
p472
S'io/c'
p473
S'set the buffer and size for a specific stream'
p474
tp475
a(S'fread'
p476
S'www.cppreference.com/wiki/io/c/fread'
p477
S'io/c'
p478
S'read from a file'
p479
tp480
a(S'fwrite'
p481
S'www.cppreference.com/wiki/io/c/fwrite'
p482
S'io/c'
p483
S'write to a file'
p484
tp485
a(S'fgetc'
p486
S'www.cppreference.com/wiki/io/c/fgetc'
p487
S'io/c'
p488
S'get a character from a file stream'
p489
tp490
a(S'getc'
p491
S'www.cppreference.com/wiki/io/c/fgetc'
p492
S'io/c'
p493
S'get a character from a file stream'
p494
tp495
a(S'fgets'
p496
S'www.cppreference.com/wiki/io/c/fgets'
p497
S'io/c'
p498
S'get a character string from a file stream'
p499
tp500
a(S'fputc'
p501
S'www.cppreference.com/wiki/io/c/fputc'
p502
S'io/c'
p503
S'write a character to a file stream'
p504
tp505
a(S'putc'
p506
S'www.cppreference.com/wiki/io/c/fputc'
p507
S'io/c'
p508
S'write a character to a file stream'
p509
tp510
a(S'fputs'
p511
S'www.cppreference.com/wiki/io/c/fputs'
p512
S'io/c'
p513
S'write a character string to a file stream'
p514
tp515
a(S'getchar'
p516
S'www.cppreference.com/wiki/io/c/getchar'
p517
S'io/c'
p518
S'read a character from'
p519
tp520
a(S'gets'
p521
S'www.cppreference.com/wiki/io/c/gets'
p522
S'io/c'
p523
S'read a character string from'
p524
tp525
a(S'putchar'
p526
S'www.cppreference.com/wiki/io/c/putchar'
p527
S'io/c'
p528
S'write a character to'
p529
tp530
a(S'puts'
p531
S'www.cppreference.com/wiki/io/c/puts'
p532
S'io/c'
p533
S'write a character string to'
p534
tp535
a(S'ungetc'
p536
S'www.cppreference.com/wiki/io/c/ungetc'
p537
S'io/c'
p538
S'puts a character back into a file stream'
p539
tp540
a(S'fgetwc'
p541
S'www.cppreference.com/wiki/io/c/fgetwc'
p542
S'io/c'
p543
S'get a wide character from a file stream'
p544
tp545
a(S'fgetws'
p546
S'www.cppreference.com/wiki/io/c/fgetws'
p547
S'io/c'
p548
S'get a wide character string from a file stream'
p549
tp550
a(S'fputwc'
p551
S'www.cppreference.com/wiki/io/c/fputwc'
p552
S'io/c'
p553
S'write a character to a file stream'
p554
tp555
a(S'fputws'
p556
S'www.cppreference.com/wiki/io/c/fputws'
p557
S'io/c'
p558
S'write a character string to a file stream'
p559
tp560
a(S'getwchar'
p561
S'www.cppreference.com/wiki/io/c/getwchar'
p562
S'io/c'
p563
S'read a character from'
p564
tp565
a(S'putwchar'
p566
S'www.cppreference.com/wiki/io/c/putwchar'
p567
S'io/c'
p568
S'write a character to'
p569
tp570
a(S'ungetwc'
p571
S'www.cppreference.com/wiki/io/c/ungetwc'
p572
S'io/c'
p573
S'puts a character back into a file stream'
p574
tp575
a(S'scanf'
p576
S'www.cppreference.com/wiki/io/c/scanf'
p577
S'io/c'
p578
S'read formatted input from'
p579
tp580
a(S'fscanf'
p581
S'www.cppreference.com/wiki/io/c/fscanf'
p582
S'io/c'
p583
S'read formatted input from a file stream'
p584
tp585
a(S'sscanf'
p586
S'www.cppreference.com/wiki/io/c/sscanf'
p587
S'io/c'
p588
S'read formatted input from a buffer'
p589
tp590
a(S'vscanf'
p591
S'www.cppreference.com/wiki/io/c/vscanf'
p592
S'io/c'
p593
S'read formatted input from'
p594
tp595
a(S'vfscanf'
p596
S'www.cppreference.com/wiki/io/c/vfscanf'
p597
S'io/c'
p598
S'read formatted input from a file stream using variable argument list ('
p599
tp600
a(S'vsscanf'
p601
S'www.cppreference.com/wiki/io/c/vsscanf'
p602
S'io/c'
p603
S'read formatted input from a buffer using variable argument list ('
p604
tp605
a(S'printf'
p606
S'www.cppreference.com/wiki/io/c/printf'
p607
S'io/c'
p608
S'print formatted output to'
p609
tp610
a(S'fprintf'
p611
S'www.cppreference.com/wiki/io/c/fprintf'
p612
S'io/c'
p613
S'print formatted output to a file stream'
p614
tp615
a(S'sprintf'
p616
S'www.cppreference.com/wiki/io/c/sprintf'
p617
S'io/c'
p618
S'print formatted output to a buffer'
p619
tp620
a(S'snprintf'
p621
S'www.cppreference.com/wiki/io/c/snprintf'
p622
S'io/c'
p623
S'print formatted output to a buffer (with bounds checking) ('
p624
tp625
a(S'vprintf'
p626
S'www.cppreference.com/wiki/io/c/vprintf'
p627
S'io/c'
p628
S'print formatted output to'
p629
tp630
a(S'vfprintf'
p631
S'www.cppreference.com/wiki/io/c/vfprintf'
p632
S'io/c'
p633
S'print formatted output to a file stream using variable argument list'
p634
tp635
a(S'vsprintf'
p636
S'www.cppreference.com/wiki/io/c/vsprintf'
p637
S'io/c'
p638
S'print formatted output to a buffer using variable argument list'
p639
tp640
a(S'vsnprintf'
p641
S'www.cppreference.com/wiki/io/c/vsnprintf'
p642
S'io/c'
p643
S'print formatted output to a buffer using variable argument list (with bounds checking) ('
p644
tp645
a(S'wscanf'
p646
S'www.cppreference.com/wiki/io/c/wscanf'
p647
S'io/c'
p648
S'read formatted wide character input from'
p649
tp650
a(S'fwscanf'
p651
S'www.cppreference.com/wiki/io/c/fwscanf'
p652
S'io/c'
p653
S'read formatted wide character input from a file stream'
p654
tp655
a(S'swscanf'
p656
S'www.cppreference.com/wiki/io/c/swscanf'
p657
S'io/c'
p658
S'read formatted wide character input from a buffer'
p659
tp660
a(S'vwscanf'
p661
S'www.cppreference.com/wiki/io/c/vwscanf'
p662
S'io/c'
p663
S'read formatted wide character input from'
p664
tp665
a(S'vfwscanf'
p666
S'www.cppreference.com/wiki/io/c/vfwscanf'
p667
S'io/c'
p668
S'read formatted wide character input from a file stream using variable argument list ('
p669
tp670
a(S'vswscanf'
p671
S'www.cppreference.com/wiki/io/c/vswscanf'
p672
S'io/c'
p673
S'read formatted wide character input from a buffer using variable argument list ('
p674
tp675
a(S'wprintf'
p676
S'www.cppreference.com/wiki/io/c/wprintf'
p677
S'io/c'
p678
S'print formatted wide character output to'
p679
tp680
a(S'fwprintf'
p681
S'www.cppreference.com/wiki/io/c/fwprintf'
p682
S'io/c'
p683
S'print formatted wide character output to a file stream'
p684
tp685
a(S'swprintf'
p686
S'www.cppreference.com/wiki/io/c/swprintf'
p687
S'io/c'
p688
S'print formatted wide character output to a buffer'
p689
tp690
a(S'vwprintf'
p691
S'www.cppreference.com/wiki/io/c/vwprintf'
p692
S'io/c'
p693
S'print formatted wide character output to'
p694
tp695
a(S'vfwprintf'
p696
S'www.cppreference.com/wiki/io/c/vfwprintf'
p697
S'io/c'
p698
S'print formatted wide character output to a file stream using variable argument list'
p699
tp700
a(S'vswprintf'
p701
S'www.cppreference.com/wiki/io/c/vswprintf'
p702
S'io/c'
p703
S'print formatted wide character output to a buffer using variable argument list'
p704
tp705
a(S'fgetpos'
p706
S'www.cppreference.com/wiki/io/c/fgetpos'
p707
S'io/c'
p708
S'get the file position indicator'
p709
tp710
a(S'fseek'
p711
S'www.cppreference.com/wiki/io/c/fseek'
p712
S'io/c'
p713
S'move to a specific location in a file'
p714
tp715
a(S'fsetpos'
p716
S'www.cppreference.com/wiki/io/c/fsetpos'
p717
S'io/c'
p718
S'move to a specific location in a file'
p719
tp720
a(S'ftell'
p721
S'www.cppreference.com/wiki/io/c/ftell'
p722
S'io/c'
p723
S'returns the current file position indicator'
p724
tp725
a(S'rewind'
p726
S'www.cppreference.com/wiki/io/c/rewind'
p727
S'io/c'
p728
S'move the file position indicator to the beginning of a file'
p729
tp730
a(S'clearerr'
p731
S'www.cppreference.com/wiki/io/c/clearerr'
p732
S'io/c'
p733
S'clears errors'
p734
tp735
a(S'feof'
p736
S'www.cppreference.com/wiki/io/c/feof'
p737
S'io/c'
p738
S'checks for the end-of-file'
p739
tp740
a(S'ferror'
p741
S'www.cppreference.com/wiki/io/c/ferror'
p742
S'io/c'
p743
S'checks for a file error'
p744
tp745
a(S'perror'
p746
S'www.cppreference.com/wiki/io/c/perror'
p747
S'io/c'
p748
S'displays a string version of the current error to stderr'
p749
tp750
a(S'remove'
p751
S'www.cppreference.com/wiki/io/c/remove'
p752
S'io/c'
p753
S'erase a file'
p754
tp755
a(S'rename'
p756
S'www.cppreference.com/wiki/io/c/rename'
p757
S'io/c'
p758
S'rename a file'
p759
tp760
a(S'tmpfile'
p761
S'www.cppreference.com/wiki/io/c/tmpfile'
p762
S'io/c'
p763
S'return a pointer to a temporary file'
p764
tp765
a(S'tmpnam'
p766
S'www.cppreference.com/wiki/io/c/tmpnam'
p767
S'io/c'
p768
S'return a unique filename'
p769
tp770
a(S'isalnum'
p771
S'www.cppreference.com/wiki/string/c/isalnum'
p772
S'string/c'
p773
S'checks if a character is alphanumeric'
p774
tp775
a(S'isalpha'
p776
S'www.cppreference.com/wiki/string/c/isalpha'
p777
S'string/c'
p778
S'checks if a character is alphabetic'
p779
tp780
a(S'iscntrl'
p781
S'www.cppreference.com/wiki/string/c/iscntrl'
p782
S'string/c'
p783
S'checks if a character is a control character'
p784
tp785
a(S'isdigit'
p786
S'www.cppreference.com/wiki/string/c/isdigit'
p787
S'string/c'
p788
S'checks if a character is a digit'
p789
tp790
a(S'isgraph'
p791
S'www.cppreference.com/wiki/string/c/isgraph'
p792
S'string/c'
p793
S'checks if a character is a graphical character'
p794
tp795
a(S'islower'
p796
S'www.cppreference.com/wiki/string/c/islower'
p797
S'string/c'
p798
S'checks if a character is lowercase'
p799
tp800
a(S'isprint'
p801
S'www.cppreference.com/wiki/string/c/isprint'
p802
S'string/c'
p803
S'checks if a character is a printing character'
p804
tp805
a(S'ispunct'
p806
S'www.cppreference.com/wiki/string/c/ispunct'
p807
S'string/c'
p808
S'checks if a character is punctuation'
p809
tp810
a(S'isspace'
p811
S'www.cppreference.com/wiki/string/c/isspace'
p812
S'string/c'
p813
S'checks if a character is a space character'
p814
tp815
a(S'isupper'
p816
S'www.cppreference.com/wiki/string/c/isupper'
p817
S'string/c'
p818
S'checks if a character is an uppercase character'
p819
tp820
a(S'isxdigit'
p821
S'www.cppreference.com/wiki/string/c/isxdigit'
p822
S'string/c'
p823
S'checks if a character is a hexadecimal character'
p824
tp825
a(S'tolower'
p826
S'www.cppreference.com/wiki/string/c/tolower'
p827
S'string/c'
p828
S'converts a character to lowercase'
p829
tp830
a(S'toupper'
p831
S'www.cppreference.com/wiki/string/c/toupper'
p832
S'string/c'
p833
S'converts a character to uppercase'
p834
tp835
a(S'atof'
p836
S'www.cppreference.com/wiki/string/c/atof'
p837
S'string/c'
p838
S'converts a character string to a'
p839
tp840
a(S'atoi'
p841
S'www.cppreference.com/wiki/string/c/atoi'
p842
S'string/c'
p843
S'converts a character string to an'
p844
tp845
a(S'atol'
p846
S'www.cppreference.com/wiki/string/c/atoi'
p847
S'string/c'
p848
S'converts a character string to an'
p849
tp850
a(S'atoll'
p851
S'www.cppreference.com/wiki/string/c/atoi'
p852
S'string/c'
p853
S'converts a character string to an'
p854
tp855
a(S'strtol'
p856
S'www.cppreference.com/wiki/string/c/strtol'
p857
S'string/c'
p858
S'converts a character string to an integer value'
p859
tp860
a(S'strtoll'
p861
S'www.cppreference.com/wiki/string/c/strtol'
p862
S'string/c'
p863
S'converts a character string to an integer value'
p864
tp865
a(S'strtoul'
p866
S'www.cppreference.com/wiki/string/c/strtoul'
p867
S'string/c'
p868
S'converts a character string to an unsigned integer value'
p869
tp870
a(S'strtoull'
p871
S'www.cppreference.com/wiki/string/c/strtoul'
p872
S'string/c'
p873
S'converts a character string to an unsigned integer value'
p874
tp875
a(S'strtof'
p876
S'www.cppreference.com/wiki/string/c/strtof'
p877
S'string/c'
p878
S'converts a character string to a floating point value'
p879
tp880
a(S'strtod'
p881
S'www.cppreference.com/wiki/string/c/strtof'
p882
S'string/c'
p883
S'converts a character string to a floating point value'
p884
tp885
a(S'strtold'
p886
S'www.cppreference.com/wiki/string/c/strtof'
p887
S'string/c'
p888
S'converts a character string to a floating point value'
p889
tp890
a(S'strcpy'
p891
S'www.cppreference.com/wiki/string/c/strcpy'
p892
S'string/c'
p893
S'copies one string to another'
p894
tp895
a(S'strncpy'
p896
S'www.cppreference.com/wiki/string/c/strncpy'
p897
S'string/c'
p898
S'copies a certain amount of characters from one string to another'
p899
tp900
a(S'strcat'
p901
S'www.cppreference.com/wiki/string/c/strcat'
p902
S'string/c'
p903
S'concatenates two strings'
p904
tp905
a(S'strncat'
p906
S'www.cppreference.com/wiki/string/c/strncat'
p907
S'string/c'
p908
S'concatenates a certain amount of characters of two strings'
p909
tp910
a(S'strxfrm'
p911
S'www.cppreference.com/wiki/string/c/strxfrm'
p912
S'string/c'
p913
S'converts a substring so that it can be used by string comparison functions'
p914
tp915
a(S'strchr'
p916
S'www.cppreference.com/wiki/string/c/strchr'
p917
S'string/c'
p918
S'finds the first occurrence of a character in a string'
p919
tp920
a(S'strcmp'
p921
S'www.cppreference.com/wiki/string/c/strcmp'
p922
S'string/c'
p923
S'compares two strings'
p924
tp925
a(S'strncmp'
p926
S'www.cppreference.com/wiki/string/c/strncmp'
p927
S'string/c'
p928
S'compares a certain amount of characters of two strings'
p929
tp930
a(S'strcoll'
p931
S'www.cppreference.com/wiki/string/c/strcoll'
p932
S'string/c'
p933
S'compares two strings in accordance to the current locale'
p934
tp935
a(S'strcspn'
p936
S'www.cppreference.com/wiki/string/c/strcspn'
p937
S'string/c'
p938
S'searches one string for any characters in another'
p939
tp940
a(S'strlen'
p941
S'www.cppreference.com/wiki/string/c/strlen'
p942
S'string/c'
p943
S'returns the length of a given string'
p944
tp945
a(S'strpbrk'
p946
S'www.cppreference.com/wiki/string/c/strpbrk'
p947
S'string/c'
p948
S'finds the first location of any character in one string, in another string'
p949
tp950
a(S'strrchr'
p951
S'www.cppreference.com/wiki/string/c/strrchr'
p952
S'string/c'
p953
S'finds the last occurrence of a character in a string'
p954
tp955
a(S'strspn'
p956
S'www.cppreference.com/wiki/string/c/strspn'
p957
S'string/c'
p958
S'returns the length of a substring of characters of a character string'
p959
tp960
a(S'strstr'
p961
S'www.cppreference.com/wiki/string/c/strstr'
p962
S'string/c'
p963
S'finds the first occurrence of a substring of characters'
p964
tp965
a(S'strtok'
p966
S'www.cppreference.com/wiki/string/c/strtok'
p967
S'string/c'
p968
S'finds the next token in a character string'
p969
tp970
a(S'memchr'
p971
S'www.cppreference.com/wiki/string/c/memchr'
p972
S'string/c'
p973
S'searches an array for the first occurrence of a character'
p974
tp975
a(S'memcmp'
p976
S'www.cppreference.com/wiki/string/c/memcmp'
p977
S'string/c'
p978
S'compares two buffers'
p979
tp980
a(S'memset'
p981
S'www.cppreference.com/wiki/string/c/memset'
p982
S'string/c'
p983
S'fills a buffer with a character'
p984
tp985
a(S'memcpy'
p986
S'www.cppreference.com/wiki/string/c/memcpy'
p987
S'string/c'
p988
S'copies one buffer to another'
p989
tp990
a(S'memmove'
p991
S'www.cppreference.com/wiki/string/c/memmove'
p992
S'string/c'
p993
S'moves one buffer to another'
p994
tp995
a(S'strerror'
p996
S'www.cppreference.com/wiki/string/c/strerror'
p997
S'string/c'
p998
S'returns a text version of a given error code'
p999
tp1000
a(S'absint'
p1001
S'www.cppreference.com/wiki/c/math/abs'
p1002
S'c/math'
p1003
S'absolute value of an integral value'
p1004
tp1005
a(S'absfloat'
p1006
S'www.cppreference.com/wiki/c/math/fabs'
p1007
S'c/math'
p1008
S'absolute value of an floating point value'
p1009
tp1010
a(S'div'
p1011
S'www.cppreference.com/wiki/c/math/div'
p1012
S'c/math'
p1013
S'the quotient and remainder of a division'
p1014
tp1015
a(S'fmod'
p1016
S'www.cppreference.com/wiki/c/math/fmod'
p1017
S'c/math'
p1018
S'remainder of the division operation'
p1019
tp1020
a(S'remainder'
p1021
S'www.cppreference.com/wiki/c/math/remainder'
p1022
S'c/math'
p1023
S'signed remainder of the division operation ('
p1024
tp1025
a(S'remquo'
p1026
S'www.cppreference.com/wiki/c/math/remquo'
p1027
S'c/math'
p1028
S''
p1029
tp1030
a(S'fma'
p1031
S'www.cppreference.com/wiki/c/math/fma'
p1032
S'c/math'
p1033
S'fused multiply-add operation ('
p1034
tp1035
a(S'fmax'
p1036
S'www.cppreference.com/wiki/c/math/fmax'
p1037
S'c/math'
p1038
S'smaller of the two floating point values ('
p1039
tp1040
a(S'fmin'
p1041
S'www.cppreference.com/wiki/c/math/fmin'
p1042
S'c/math'
p1043
S'bigger of the two floating point values ('
p1044
tp1045
a(S'fdim'
p1046
S'www.cppreference.com/wiki/c/math/fdim'
p1047
S'c/math'
p1048
S'absolute difference of the two floating point values ('
p1049
tp1050
a(S'nan'
p1051
S'www.cppreference.com/wiki/c/math/nan'
p1052
S'c/math'
p1053
S'not-a-number (NaN) ('
p1054
tp1055
a(S'exp'
p1056
S'www.cppreference.com/wiki/c/math/exp'
p1057
S'c/math'
p1058
S'returns'
p1059
tp1060
a(S'exp2'
p1061
S'www.cppreference.com/wiki/c/math/exp2'
p1062
S'c/math'
p1063
S'returns'
p1064
tp1065
a(S'expm1'
p1066
S'www.cppreference.com/wiki/c/math/expm1'
p1067
S'c/math'
p1068
S'returns'
p1069
tp1070
a(S'log'
p1071
S'www.cppreference.com/wiki/c/math/log'
p1072
S'c/math'
p1073
S'natural logarithm (to base'
p1074
tp1075
a(S'log10'
p1076
S'www.cppreference.com/wiki/c/math/log10'
p1077
S'c/math'
p1078
S'common logarithm (to base'
p1079
tp1080
a(S'log1p'
p1081
S'www.cppreference.com/wiki/c/math/log1p'
p1082
S'c/math'
p1083
S'natural logarithm (to base'
p1084
tp1085
a(S'ilogb'
p1086
S'www.cppreference.com/wiki/c/math/ilogb'
p1087
S'c/math'
p1088
S'extracts exponent of the number ('
p1089
tp1090
a(S'logb'
p1091
S'www.cppreference.com/wiki/c/math/logb'
p1092
S'c/math'
p1093
S'extracts exponent of the number ('
p1094
tp1095
a(S'sqrt'
p1096
S'www.cppreference.com/wiki/c/math/sqrt'
p1097
S'c/math'
p1098
S'square root'
p1099
tp1100
a(S'cbrt'
p1101
S'www.cppreference.com/wiki/c/math/cbrt'
p1102
S'c/math'
p1103
S'cubic root ('
p1104
tp1105
a(S'hypot'
p1106
S'www.cppreference.com/wiki/c/math/hypot'
p1107
S'c/math'
p1108
S'square root of the sum of the squares of two given numbers ('
p1109
tp1110
a(S'pow'
p1111
S'www.cppreference.com/wiki/c/math/pow'
p1112
S'c/math'
p1113
S'returns the given number raised to the given power'
p1114
tp1115
a(S'sin'
p1116
S'www.cppreference.com/wiki/c/math/sin'
p1117
S'c/math'
p1118
S'sine'
p1119
tp1120
a(S'cos'
p1121
S'www.cppreference.com/wiki/c/math/cos'
p1122
S'c/math'
p1123
S'cosine'
p1124
tp1125
a(S'tan'
p1126
S'www.cppreference.com/wiki/c/math/tan'
p1127
S'c/math'
p1128
S'tangent'
p1129
tp1130
a(S'asin'
p1131
S'www.cppreference.com/wiki/c/math/asin'
p1132
S'c/math'
p1133
S'arc sine'
p1134
tp1135
a(S'acos'
p1136
S'www.cppreference.com/wiki/c/math/acos'
p1137
S'c/math'
p1138
S'arc cosine'
p1139
tp1140
a(S'atan'
p1141
S'www.cppreference.com/wiki/c/math/atan'
p1142
S'c/math'
p1143
S'arc tangent'
p1144
tp1145
a(S'atan2'
p1146
S'www.cppreference.com/wiki/c/math/atan2'
p1147
S'c/math'
p1148
S'arc tangent, using signs to determine quadrants'
p1149
tp1150
a(S'sinh'
p1151
S'www.cppreference.com/wiki/c/math/sinh'
p1152
S'c/math'
p1153
S'hyperbolic sine'
p1154
tp1155
a(S'cosh'
p1156
S'www.cppreference.com/wiki/c/math/cosh'
p1157
S'c/math'
p1158
S'hyperbolic cosine'
p1159
tp1160
a(S'tanh'
p1161
S'www.cppreference.com/wiki/c/math/tanh'
p1162
S'c/math'
p1163
S'hyperbolic tangent'
p1164
tp1165
a(S'asinh'
p1166
S'www.cppreference.com/wiki/c/math/asinh'
p1167
S'c/math'
p1168
S'hyperbolic arc sine ('
p1169
tp1170
a(S'acosh'
p1171
S'www.cppreference.com/wiki/c/math/acosh'
p1172
S'c/math'
p1173
S'hyperbolic arc cosine ('
p1174
tp1175
a(S'atanh'
p1176
S'www.cppreference.com/wiki/c/math/atanh'
p1177
S'c/math'
p1178
S'hyperbolic arc tangent ('
p1179
tp1180
a(S'erf'
p1181
S'www.cppreference.com/wiki/c/math/erf'
p1182
S'c/math'
p1183
S'error function ('
p1184
tp1185
a(S'erfc'
p1186
S'www.cppreference.com/wiki/c/math/erfc'
p1187
S'c/math'
p1188
S'complementary error function ('
p1189
tp1190
a(S'lgamma'
p1191
S'www.cppreference.com/wiki/c/math/lgamma'
p1192
S'c/math'
p1193
S'natural logarithm of the gamma function ('
p1194
tp1195
a(S'tgamma'
p1196
S'www.cppreference.com/wiki/c/math/tgamma'
p1197
S'c/math'
p1198
S'gamma function ('
p1199
tp1200
a(S'ceil'
p1201
S'www.cppreference.com/wiki/c/math/ceil'
p1202
S'c/math'
p1203
S'nearest integer not less than the given value'
p1204
tp1205
a(S'floor'
p1206
S'www.cppreference.com/wiki/c/math/floor'
p1207
S'c/math'
p1208
S'nearest integer not greater than the given value'
p1209
tp1210
a(S'trunc'
p1211
S'www.cppreference.com/wiki/c/math/trunc'
p1212
S'c/math'
p1213
S'nearest integer not greater in magnitude than the given value ('
p1214
tp1215
a(S'round'
p1216
S'www.cppreference.com/wiki/c/math/round'
p1217
S'c/math'
p1218
S'nearest integer, rounding away from zero in halfway cases ('
p1219
tp1220
a(S'nearbyint'
p1221
S'www.cppreference.com/wiki/c/math/nearbyint'
p1222
S'c/math'
p1223
S'nearest integer using current rounding mode ('
p1224
tp1225
a(S'rint'
p1226
S'www.cppreference.com/wiki/c/math/rint'
p1227
S'c/math'
p1228
S'nearest integer using current rounding mode with'
p1229
tp1230
a(S'frexp'
p1231
S'www.cppreference.com/wiki/c/math/frexp'
p1232
S'c/math'
p1233
S'decomposes a number into scientific notation'
p1234
tp1235
a(S'ldexp'
p1236
S'www.cppreference.com/wiki/c/math/ldexp'
p1237
S'c/math'
p1238
S'computes a number in scientific notation'
p1239
tp1240
a(S'modf'
p1241
S'www.cppreference.com/wiki/c/math/modf'
p1242
S'c/math'
p1243
S'decomposes a number into integer and fractional parts'
p1244
tp1245
a(S'scalbn'
p1246
S'www.cppreference.com/wiki/c/math/scalbn'
p1247
S'c/math'
p1248
g1029
tp1249
a(S'scalbln'
p1250
S'www.cppreference.com/wiki/c/math/scalbn'
p1251
S'c/math'
p1252
g1029
tp1253
a(S'nextafter'
p1254
S'www.cppreference.com/wiki/c/math/nextafter'
p1255
S'c/math'
p1256
S'next representable floating point value ('
p1257
tp1258
a(S'nexttoward'
p1259
S'www.cppreference.com/wiki/c/math/nexttoward'
p1260
S'c/math'
p1261
S'next representable floating point value towards the given value ('
p1262
tp1263
a(S'copysign'
p1264
S'www.cppreference.com/wiki/c/math/copysign'
p1265
S'c/math'
p1266
S'copies the sign of a floating point value ('
p1267
tp1268
a(S'fpclassify'
p1269
S'www.cppreference.com/wiki/c/math/fpclassify'
p1270
S'c/math'
p1271
S'categorizes the given floating point value ('
p1272
tp1273
a(S'isfinite'
p1274
S'www.cppreference.com/wiki/c/math/isfinite'
p1275
S'c/math'
p1276
S'checks if the given number has finite value ('
p1277
tp1278
a(S'isinf'
p1279
S'www.cppreference.com/wiki/c/math/isinf'
p1280
S'c/math'
p1281
S'checks if the given number is infinite ('
p1282
tp1283
a(S'isnan'
p1284
S'www.cppreference.com/wiki/c/math/isnan'
p1285
S'c/math'
p1286
S'checks if the given number is NaN('
p1287
tp1288
a(S'isnormal'
p1289
S'www.cppreference.com/wiki/c/math/isnormal'
p1290
S'c/math'
p1291
S'checks if the given number is normal ('
p1292
tp1293
a(S'signbit'
p1294
S'www.cppreference.com/wiki/c/math/signbit'
p1295
S'c/math'
p1296
S'checks if the given number is negative ('
p1297
tp1298
a(S'huge_val'
p1299
S'www.cppreference.com/wiki/c/math/huge_val'
p1300
S'c/math'
p1301
S'indicates value too big to be representable (infinity) by'
p1302
tp1303
a(S'huge_valf'
p1304
S'www.cppreference.com/wiki/c/math/huge_valf'
p1305
S'c/math'
p1306
S'indicates value too big to be representable (infinity) by'
p1307
tp1308
a(S'huge_vall'
p1309
S'www.cppreference.com/wiki/c/math/huge_vall'
p1310
S'c/math'
p1311
S'indicates value too big to be representable (infinity) by'
p1312
tp1313
a(S'fp_infinite'
p1314
S'www.cppreference.com/wiki/c/math/fp_infinite'
p1315
S'c/math'
p1316
S'indicates infinite floating point value ('
p1317
tp1318
a(S'fp_nan'
p1319
S'www.cppreference.com/wiki/c/math/fp_nan'
p1320
S'c/math'
p1321
S'indicates not-a-number (NaN) ('
p1322
tp1323
a(S'fp_normal'
p1324
S'www.cppreference.com/wiki/c/math/fp_normal'
p1325
S'c/math'
p1326
S'indicates normal number ('
p1327
tp1328
a(S'fp_subnormal'
p1329
S'www.cppreference.com/wiki/c/math/fp_subnormal'
p1330
S'c/math'
p1331
S'indicates subnormal number ('
p1332
tp1333
a(S'fp_zero'
p1334
S'www.cppreference.com/wiki/c/math/fp_zero'
p1335
S'c/math'
p1336
S'indicates zero ('
p1337
tp1338
a(S'abort'
p1339
S'www.cppreference.com/wiki/c/other/abort'
p1340
S'c/other'
p1341
S'stops the program'
p1342
tp1343
a(S'assert'
p1344
S'www.cppreference.com/wiki/c/other/assert'
p1345
S'c/other'
p1346
S'stops the program if an expression isnt true'
p1347
tp1348
a(S'atexit'
p1349
S'www.cppreference.com/wiki/c/other/atexit'
p1350
S'c/other'
p1351
S'sets a function to be called when the program exits'
p1352
tp1353
a(S'bsearch'
p1354
S'www.cppreference.com/wiki/c/other/bsearch'
p1355
S'c/other'
p1356
S'perform a binary search'
p1357
tp1358
a(S'exit'
p1359
S'www.cppreference.com/wiki/c/other/exit'
p1360
S'c/other'
p1361
S'stop the program'
p1362
tp1363
a(S'getenv'
p1364
S'www.cppreference.com/wiki/c/other/getenv'
p1365
S'c/other'
p1366
S'get environnment information about a variable'
p1367
tp1368
a(S'longjmp'
p1369
S'www.cppreference.com/wiki/c/other/longjmp'
p1370
S'c/other'
p1371
S'start execution at a certain point in the program'
p1372
tp1373
a(S'putenv'
p1374
S'www.cppreference.com/wiki/c/other/putenv'
p1375
S'c/other'
p1376
S'add/modify the environmental settings'
p1377
tp1378
a(S'qsort'
p1379
S'www.cppreference.com/wiki/c/other/qsort'
p1380
S'c/other'
p1381
S'perform a quicksort'
p1382
tp1383
a(S'raise'
p1384
S'www.cppreference.com/wiki/c/other/raise'
p1385
S'c/other'
p1386
S'send a signal to the program'
p1387
tp1388
a(S'rand'
p1389
S'www.cppreference.com/wiki/c/other/rand'
p1390
S'c/other'
p1391
S'returns a pseudorandom number'
p1392
tp1393
a(S'setjmp'
p1394
S'www.cppreference.com/wiki/c/other/setjmp'
p1395
S'c/other'
p1396
S'set execution to start at a certain point'
p1397
tp1398
a(S'signal'
p1399
S'www.cppreference.com/wiki/c/other/signal'
p1400
S'c/other'
p1401
S'register a function as a signal handler'
p1402
tp1403
a(S'srand'
p1404
S'www.cppreference.com/wiki/c/other/srand'
p1405
S'c/other'
p1406
S'initialize the random number generator'
p1407
tp1408
a(S'system'
p1409
S'www.cppreference.com/wiki/c/other/system'
p1410
S'c/other'
p1411
S'have the default command interpreter execute a command'
p1412
tp1413
a(S'va_arg'
p1414
S'www.cppreference.com/wiki/c/other/va_arg'
p1415
S'c/other'
p1416
S'use variable length parameter lists'
p1417
tp1418
a(S'getline'
p1419
S'www.cppreference.com/wiki/string/getline'
p1420
S'string'
p1421
S'read data from an I/O stream into a string'
p1422
tp1423
a(S'stoi'
p1424
S'www.cppreference.com/wiki/string/stoi'
p1425
S'string'
p1426
S'converts the given string to an integer ('
p1427
tp1428
a(S'stol'
p1429
S'www.cppreference.com/wiki/string/stoi'
p1430
S'string'
p1431
S'converts the given string to an integer ('
p1432
tp1433
a(S'stoll'
p1434
S'www.cppreference.com/wiki/string/stoi'
p1435
S'string'
p1436
S'converts the given string to an integer ('
p1437
tp1438
a(S'stoul'
p1439
S'www.cppreference.com/wiki/string/stoi'
p1440
S'string'
p1441
S'converts the given string to an integer ('
p1442
tp1443
a(S'stoull'
p1444
S'www.cppreference.com/wiki/string/stoi'
p1445
S'string'
p1446
S'converts the given string to an integer ('
p1447
tp1448
a(S'stof'
p1449
S'www.cppreference.com/wiki/string/stof'
p1450
S'string'
p1451
S'converts the given string to an floating point value ('
p1452
tp1453
a(S'stod'
p1454
S'www.cppreference.com/wiki/string/stof'
p1455
S'string'
p1456
S'converts the given string to an floating point value ('
p1457
tp1458
a(S'stold'
p1459
S'www.cppreference.com/wiki/string/stof'
p1460
S'string'
p1461
S'converts the given string to an floating point value ('
p1462
tp1463
a(S'to_string'
p1464
S'www.cppreference.com/wiki/string/to_string'
p1465
S'string'
p1466
S'converts the given integral or floating point value to'
p1467
tp1468
a(S'to_wstring'
p1469
S'www.cppreference.com/wiki/string/to_wstring'
p1470
S'string'
p1471
S'converts the given integral or floating point value to'
p1472
tp1473
a(S'exceptions'
p1474
S'www.cppreference.com/wiki/io/exceptions'
p1475
S'io'
p1476
S'set the stream to throw exceptions on errors'
p1477
tp1478
a(S'fill'
p1479
S'www.cppreference.com/wiki/io/fill'
p1480
S'io'
p1481
S'manipulate the default fill character'
p1482
tp1483
a(S'rdstate'
p1484
S'www.cppreference.com/wiki/io/rdstate'
p1485
S'io'
p1486
S'returns the state flags of the stream'
p1487
tp1488
a(S'constructors'
p1489
S'www.cppreference.com/wiki/io/sstream/constructors'
p1490
S'io/sstream'
p1491
S'create new string streams'
p1492
tp1493
a(S'operators'
p1494
S'www.cppreference.com/wiki/io/sstream/operators'
p1495
S'io/sstream'
p1496
S'read from and write to string streams'
p1497
tp1498
a(S'rdbuf'
p1499
S'www.cppreference.com/wiki/io/sstream/rdbuf'
p1500
S'io/sstream'
p1501
S'get the buffer for a string stream'
p1502
tp1503
a(S'str'
p1504
S'www.cppreference.com/wiki/io/sstream/str'
p1505
S'io/sstream'
p1506
S'get or set the streams string'
p1507
tp1508
a(S'constructors'
p1509
S'www.cppreference.com/wiki/complex/complex_constructors'
p1510
S'complex'
p1511
S'create complex numbers from the real and imaginary parts or other complex numbers'
p1512
tp1513
a(S'operators'
p1514
S'www.cppreference.com/wiki/complex/complex_operators'
p1515
S'complex'
p1516
S'arithmetic of complex numbers, equality of complex numbers, IO of complex numbers'
p1517
tp1518
a(S'abs'
p1519
S'www.cppreference.com/wiki/complex/abs'
p1520
S'complex'
p1521
S'absolute value of a complex number'
p1522
tp1523
a(S'arg'
p1524
S'www.cppreference.com/wiki/complex/arg'
p1525
S'complex'
p1526
S'argument (angle) of a complex number'
p1527
tp1528
a(S'conj'
p1529
S'www.cppreference.com/wiki/complex/conj'
p1530
S'complex'
p1531
S'conjugate of a complex number'
p1532
tp1533
a(S'cos'
p1534
S'www.cppreference.com/wiki/complex/cos'
p1535
S'complex'
p1536
S'cosine of a complex number'
p1537
tp1538
a(S'cosh'
p1539
S'www.cppreference.com/wiki/complex/cosh'
p1540
S'complex'
p1541
S'hyperbolic cosine of a complex number'
p1542
tp1543
a(S'exp'
p1544
S'www.cppreference.com/wiki/complex/exp'
p1545
S'complex'
p1546
S'exponential of a complex number'
p1547
tp1548
a(S'imag'
p1549
S'www.cppreference.com/wiki/complex/imag'
p1550
S'complex'
p1551
S'imaginary part of a complex number'
p1552
tp1553
a(S'log'
p1554
S'www.cppreference.com/wiki/complex/log'
p1555
S'complex'
p1556
S'natural logarithm of a complex number'
p1557
tp1558
a(S'log10'
p1559
S'www.cppreference.com/wiki/complex/log10'
p1560
S'complex'
p1561
S'base-10 logarithm of a complex number'
p1562
tp1563
a(S'norm'
p1564
S'www.cppreference.com/wiki/complex/norm'
p1565
S'complex'
p1566
S'square of the absolute value of a complex number'
p1567
tp1568
a(S'polar'
p1569
S'www.cppreference.com/wiki/complex/polar'
p1570
S'complex'
p1571
S'constructs a complex number from polar coordinates'
p1572
tp1573
a(S'pow'
p1574
S'www.cppreference.com/wiki/complex/pow'
p1575
S'complex'
p1576
S'raising a complex number to a power, raising to a complex number power, or both'
p1577
tp1578
a(S'real'
p1579
S'www.cppreference.com/wiki/complex/real'
p1580
S'complex'
p1581
S'real part of a complex number'
p1582
tp1583
a(S'sin'
p1584
S'www.cppreference.com/wiki/complex/sin'
p1585
S'complex'
p1586
S'sine of a complex number'
p1587
tp1588
a(S'sinh'
p1589
S'www.cppreference.com/wiki/complex/sinh'
p1590
S'complex'
p1591
S'hyperbolic sine of a complex number'
p1592
tp1593
a(S'sqrt'
p1594
S'www.cppreference.com/wiki/complex/sqrt'
p1595
S'complex'
p1596
S'square root of a complex number'
p1597
tp1598
a(S'tan'
p1599
S'www.cppreference.com/wiki/complex/tan'
p1600
S'complex'
p1601
S'tangent of a complex number'
p1602
tp1603
a(S'tanh'
p1604
S'www.cppreference.com/wiki/complex/tanh'
p1605
S'complex'
p1606
S'hyperbolic tangent of a complex number'
p1607
tp1608
a(S'for_each'
p1609
S'www.cppreference.com/wiki/stl/algorithm/for_each'
p1610
S'stl/algorithm'
p1611
S'apply a function to a range of elements'
p1612
tp1613
a(S'count'
p1614
S'www.cppreference.com/wiki/stl/algorithm/count'
p1615
S'stl/algorithm'
p1616
S'return the number of elements matching a given value'
p1617
tp1618
a(S'count_if'
p1619
S'www.cppreference.com/wiki/stl/algorithm/count_if'
p1620
S'stl/algorithm'
p1621
S'return the number of elements for which a predicate is true'
p1622
tp1623
a(S'mismatch'
p1624
S'www.cppreference.com/wiki/stl/algorithm/mismatch'
p1625
S'stl/algorithm'
p1626
S'finds the first position where two ranges differ'
p1627
tp1628
a(S'equal'
p1629
S'www.cppreference.com/wiki/stl/algorithm/equal'
p1630
S'stl/algorithm'
p1631
S'determine if two sets of elements are the same'
p1632
tp1633
a(S'find'
p1634
S'www.cppreference.com/wiki/stl/algorithm/find'
p1635
S'stl/algorithm'
p1636
S'find a value in a given range'
p1637
tp1638
a(S'find_if'
p1639
S'www.cppreference.com/wiki/stl/algorithm/find_if'
p1640
S'stl/algorithm'
p1641
S'find the first element for which a certain predicate is true'
p1642
tp1643
a(S'find_end'
p1644
S'www.cppreference.com/wiki/stl/algorithm/find_end'
p1645
S'stl/algorithm'
p1646
S'find the last sequence of elements in a certain range'
p1647
tp1648
a(S'find_first_of'
p1649
S'www.cppreference.com/wiki/stl/algorithm/find_first_of'
p1650
S'stl/algorithm'
p1651
S'search for any one of a set of elements'
p1652
tp1653
a(S'adjacent_find'
p1654
S'www.cppreference.com/wiki/stl/algorithm/adjacent_find'
p1655
S'stl/algorithm'
p1656
S'finds two identical (or some other relationship) items adjacent to each other'
p1657
tp1658
a(S'search'
p1659
S'www.cppreference.com/wiki/stl/algorithm/search'
p1660
S'stl/algorithm'
p1661
S'search for a range of elements'
p1662
tp1663
a(S'search_n'
p1664
S'www.cppreference.com/wiki/stl/algorithm/search_n'
p1665
S'stl/algorithm'
p1666
S'search for N consecutive copies of an element in some range'
p1667
tp1668
a(S'copy'
p1669
S'www.cppreference.com/wiki/stl/algorithm/copy'
p1670
S'stl/algorithm'
p1671
S'copy some range of elements to a new location'
p1672
tp1673
a(S'copy_backward'
p1674
S'www.cppreference.com/wiki/stl/algorithm/copy_backward'
p1675
S'stl/algorithm'
p1676
S'copy a range of elements in backwards order'
p1677
tp1678
a(S'fill'
p1679
S'www.cppreference.com/wiki/stl/algorithm/fill'
p1680
S'stl/algorithm'
p1681
S'assign a range of elements a certain value'
p1682
tp1683
a(S'fill_n'
p1684
S'www.cppreference.com/wiki/stl/algorithm/fill_n'
p1685
S'stl/algorithm'
p1686
S'assign a value to some number of elements'
p1687
tp1688
a(S'transform'
p1689
S'www.cppreference.com/wiki/stl/algorithm/transform'
p1690
S'stl/algorithm'
p1691
S'applies a function to a range of elements'
p1692
tp1693
a(S'generate'
p1694
S'www.cppreference.com/wiki/stl/algorithm/generate'
p1695
S'stl/algorithm'
p1696
S'saves the result of a function in a range'
p1697
tp1698
a(S'generate_n'
p1699
S'www.cppreference.com/wiki/stl/algorithm/generate_n'
p1700
S'stl/algorithm'
p1701
S'saves the result of N applications of a function'
p1702
tp1703
a(S'remove'
p1704
S'www.cppreference.com/wiki/stl/algorithm/remove'
p1705
S'stl/algorithm'
p1706
S'remove elements equal to certain value'
p1707
tp1708
a(S'remove_if'
p1709
S'www.cppreference.com/wiki/stl/algorithm/remove_if'
p1710
S'stl/algorithm'
p1711
S'remove all elements for which a predicate is true'
p1712
tp1713
a(S'remove_copy'
p1714
S'www.cppreference.com/wiki/stl/algorithm/remove_copy'
p1715
S'stl/algorithm'
p1716
S'copy a range of elements omitting those that match a certain value'
p1717
tp1718
a(S'remove_copy_if'
p1719
S'www.cppreference.com/wiki/stl/algorithm/remove_copy_if'
p1720
S'stl/algorithm'
p1721
S'create a copy of a range of elements, omitting any for which a predicate is true'
p1722
tp1723
a(S'replace'
p1724
S'www.cppreference.com/wiki/stl/algorithm/replace'
p1725
S'stl/algorithm'
p1726
S'replace every occurrence of some value in a range with another value'
p1727
tp1728
a(S'replace_if'
p1729
S'www.cppreference.com/wiki/stl/algorithm/replace_if'
p1730
S'stl/algorithm'
p1731
S'change the values of elements for which a predicate is true'
p1732
tp1733
a(S'replace_copy'
p1734
S'www.cppreference.com/wiki/stl/algorithm/replace_copy'
p1735
S'stl/algorithm'
p1736
S'copy a range, replacing certain elements with new ones'
p1737
tp1738
a(S'replace_copy_if'
p1739
S'www.cppreference.com/wiki/stl/algorithm/replace_copy_if'
p1740
S'stl/algorithm'
p1741
S'copy a range of elements, replacing those for which a predicate is true'
p1742
tp1743
a(S'swap'
p1744
S'www.cppreference.com/wiki/stl/algorithm/swap'
p1745
S'stl/algorithm'
p1746
S'swap the values of two objects'
p1747
tp1748
a(S'swap_ranges'
p1749
S'www.cppreference.com/wiki/stl/algorithm/swap_ranges'
p1750
S'stl/algorithm'
p1751
S'swaps two ranges of elements'
p1752
tp1753
a(S'iter_swap'
p1754
S'www.cppreference.com/wiki/stl/algorithm/iter_swap'
p1755
S'stl/algorithm'
p1756
S'swaps the elements pointed to by two iterators'
p1757
tp1758
a(S'partition'
p1759
S'www.cppreference.com/wiki/stl/algorithm/partition'
p1760
S'stl/algorithm'
p1761
S'divide a range of elements into two groups'
p1762
tp1763
a(S'stable_partition'
p1764
S'www.cppreference.com/wiki/stl/algorithm/stable_partition'
p1765
S'stl/algorithm'
p1766
S'divide elements into two groups while preserving their relative order'
p1767
tp1768
a(S'reverse'
p1769
S'www.cppreference.com/wiki/stl/algorithm/reverse'
p1770
S'stl/algorithm'
p1771
S'reverse elements in some range'
p1772
tp1773
a(S'reverse_copy'
p1774
S'www.cppreference.com/wiki/stl/algorithm/reverse_copy'
p1775
S'stl/algorithm'
p1776
S'create a copy of a range that is reversed'
p1777
tp1778
a(S'rotate'
p1779
S'www.cppreference.com/wiki/stl/algorithm/rotate'
p1780
S'stl/algorithm'
p1781
S'move the elements in some range to the left by some amount'
p1782
tp1783
a(S'rotate_copy'
p1784
S'www.cppreference.com/wiki/stl/algorithm/rotate_copy'
p1785
S'stl/algorithm'
p1786
S'copy and rotate a range of elements'
p1787
tp1788
a(S'random_shuffle'
p1789
S'www.cppreference.com/wiki/stl/algorithm/random_shuffle'
p1790
S'stl/algorithm'
p1791
S'randomly re-order elements in some range'
p1792
tp1793
a(S'unique'
p1794
S'www.cppreference.com/wiki/stl/algorithm/unique'
p1795
S'stl/algorithm'
p1796
S'remove consecutive duplicate elements in a range'
p1797
tp1798
a(S'unique_copy'
p1799
S'www.cppreference.com/wiki/stl/algorithm/unique_copy'
p1800
S'stl/algorithm'
p1801
S'creates a copy of some range of elements that contains no consecutive duplicates'
p1802
tp1803
a(S'sort'
p1804
S'www.cppreference.com/wiki/stl/algorithm/sort'
p1805
S'stl/algorithm'
p1806
S'sort a range into ascending order'
p1807
tp1808
a(S'partial_sort'
p1809
S'www.cppreference.com/wiki/stl/algorithm/partial_sort'
p1810
S'stl/algorithm'
p1811
S'sort the first N elements of a range'
p1812
tp1813
a(S'partial_sort_copy'
p1814
S'www.cppreference.com/wiki/stl/algorithm/partial_sort_copy'
p1815
S'stl/algorithm'
p1816
S'copy and partially sort a range of elements'
p1817
tp1818
a(S'stable_sort'
p1819
S'www.cppreference.com/wiki/stl/algorithm/stable_sort'
p1820
S'stl/algorithm'
p1821
S'sort a range of elements while preserving order between equal elements'
p1822
tp1823
a(S'nth_element'
p1824
S'www.cppreference.com/wiki/stl/algorithm/nth_element'
p1825
S'stl/algorithm'
p1826
S'put one element in its sorted location and make sure that no elements to its left are greater than any elements to its right'
p1827
tp1828
a(S'lower_bound'
p1829
S'www.cppreference.com/wiki/stl/algorithm/lower_bound'
p1830
S'stl/algorithm'
p1831
S'search for the first place that a value can be inserted while preserving order'
p1832
tp1833
a(S'upper_bound'
p1834
S'www.cppreference.com/wiki/stl/algorithm/upper_bound'
p1835
S'stl/algorithm'
p1836
S'searches for the last place that a value can be inserted while preserving order (first place that is greater than the value)'
p1837
tp1838
a(S'binary_search'
p1839
S'www.cppreference.com/wiki/stl/algorithm/binary_search'
p1840
S'stl/algorithm'
p1841
S'determine if an element exists in a certain range'
p1842
tp1843
a(S'equal_range'
p1844
S'www.cppreference.com/wiki/stl/algorithm/equal_range'
p1845
S'stl/algorithm'
p1846
S'search for a range of elements that are all equal to a certain element'
p1847
tp1848
a(S'merge'
p1849
S'www.cppreference.com/wiki/stl/algorithm/merge'
p1850
S'stl/algorithm'
p1851
S'merge two sorted ranges'
p1852
tp1853
a(S'inplace_merge'
p1854
S'www.cppreference.com/wiki/stl/algorithm/inplace_merge'
p1855
S'stl/algorithm'
p1856
S'merge two ordered ranges in-place'
p1857
tp1858
a(S'includes'
p1859
S'www.cppreference.com/wiki/stl/algorithm/includes'
p1860
S'stl/algorithm'
p1861
S'returns true if one set is a subset of another'
p1862
tp1863
a(S'set_difference'
p1864
S'www.cppreference.com/wiki/stl/algorithm/set_difference'
p1865
S'stl/algorithm'
p1866
S'computes the difference between two sets'
p1867
tp1868
a(S'set_intersection'
p1869
S'www.cppreference.com/wiki/stl/algorithm/set_intersection'
p1870
S'stl/algorithm'
p1871
S'computes the intersection of two sets'
p1872
tp1873
a(S'set_symmetric_difference'
p1874
S'www.cppreference.com/wiki/stl/algorithm/set_symmetric_difference'
p1875
S'stl/algorithm'
p1876
S'computes the symmetric difference between two sets'
p1877
tp1878
a(S'set_union'
p1879
S'www.cppreference.com/wiki/stl/algorithm/set_union'
p1880
S'stl/algorithm'
p1881
S'computes the union of two sets'
p1882
tp1883
a(S'is_heap'
p1884
S'www.cppreference.com/wiki/stl/algorithm/is_heap'
p1885
S'stl/algorithm'
p1886
S'returns true if a given range is a heap'
p1887
tp1888
a(S'make_heap'
p1889
S'www.cppreference.com/wiki/stl/algorithm/make_heap'
p1890
S'stl/algorithm'
p1891
S'creates a heap out of a range of elements'
p1892
tp1893
a(S'push_heap'
p1894
S'www.cppreference.com/wiki/stl/algorithm/push_heap'
p1895
S'stl/algorithm'
p1896
S'add an element to a heap'
p1897
tp1898
a(S'pop_heap'
p1899
S'www.cppreference.com/wiki/stl/algorithm/pop_heap'
p1900
S'stl/algorithm'
p1901
S'remove the largest element from a heap'
p1902
tp1903
a(S'sort_heap'
p1904
S'www.cppreference.com/wiki/stl/algorithm/sort_heap'
p1905
S'stl/algorithm'
p1906
S'turns a heap into a sorted range of elements'
p1907
tp1908
a(S'max'
p1909
S'www.cppreference.com/wiki/stl/algorithm/max'
p1910
S'stl/algorithm'
p1911
S'returns the larger of two elements'
p1912
tp1913
a(S'max_element'
p1914
S'www.cppreference.com/wiki/stl/algorithm/max_element'
p1915
S'stl/algorithm'
p1916
S'returns the largest element in a range'
p1917
tp1918
a(S'min'
p1919
S'www.cppreference.com/wiki/stl/algorithm/min'
p1920
S'stl/algorithm'
p1921
S'returns the smaller of two elements'
p1922
tp1923
a(S'min_element'
p1924
S'www.cppreference.com/wiki/stl/algorithm/min_element'
p1925
S'stl/algorithm'
p1926
S'returns the smallest element in a range'
p1927
tp1928
a(S'lexicographical_compare'
p1929
S'www.cppreference.com/wiki/stl/algorithm/lexicographical_compare'
p1930
S'stl/algorithm'
p1931
S'returns true if one range is lexicographically less than another'
p1932
tp1933
a(S'next_permutation'
p1934
S'www.cppreference.com/wiki/stl/algorithm/next_permutation'
p1935
S'stl/algorithm'
p1936
S'generates the next greater lexicographic permutation of a range of elements'
p1937
tp1938
a(S'prev_permutation'
p1939
S'www.cppreference.com/wiki/stl/algorithm/prev_permutation'
p1940
S'stl/algorithm'
p1941
S'generates the next smaller lexicographic permutation of a range of elements'
p1942
tp1943
a(S'accumulate'
p1944
S'www.cppreference.com/wiki/stl/algorithm/accumulate'
p1945
S'stl/algorithm'
p1946
S'sum up a range of elements'
p1947
tp1948
a(S'inner_product'
p1949
S'www.cppreference.com/wiki/stl/algorithm/inner_product'
p1950
S'stl/algorithm'
p1951
S'compute the inner product of two ranges of elements'
p1952
tp1953
a(S'adjacent_difference'
p1954
S'www.cppreference.com/wiki/stl/algorithm/adjacent_difference'
p1955
S'stl/algorithm'
p1956
S'compute the differences between adjacent elements in a range'
p1957
tp1958
a(S'partial_sum'
p1959
S'www.cppreference.com/wiki/stl/algorithm/partial_sum'
p1960
S'stl/algorithm'
p1961
S'compute the partial sum of a range of elements'
p1962
tp1963
a(S'constructor'
p1964
S'www.cppreference.com/wiki/stl/vector/vector'
p1965
S'stl/vector'
p1966
S'constructs the container'
p1967
tp1968
a(S'operators'
p1969
S'www.cppreference.com/wiki/stl/vector/vector_operators'
p1970
S'stl/vector'
p1971
S'compare and assign vectors'
p1972
tp1973
a(S'operator='
p1974
S'www.cppreference.com/wiki/stl/vector/operator_as'
p1975
S'stl/vector'
p1976
S'assigns the contents of the container'
p1977
tp1978
a(S'assign'
p1979
S'www.cppreference.com/wiki/stl/vector/assign'
p1980
S'stl/vector'
p1981
S'assigns the contents of the container'
p1982
tp1983
a(S'at'
p1984
S'www.cppreference.com/wiki/stl/vector/at'
p1985
S'stl/vector'
p1986
S'access specified element with bounds checking'
p1987
tp1988
a(S'operator[]'
p1989
S'www.cppreference.com/wiki/stl/vector/operator_at'
p1990
S'stl/vector'
p1991
S'access specified element'
p1992
tp1993
a(S'front'
p1994
S'www.cppreference.com/wiki/stl/vector/front'
p1995
S'stl/vector'
p1996
S'access the first element'
p1997
tp1998
a(S'back'
p1999
S'www.cppreference.com/wiki/stl/vector/back'
p2000
S'stl/vector'
p2001
S'access the last element'
p2002
tp2003
a(S'begin'
p2004
S'www.cppreference.com/wiki/stl/vector/begin'
p2005
S'stl/vector'
p2006
S'returns an iterator to the beginning'
p2007
tp2008
a(S'cbegin'
p2009
S'www.cppreference.com/wiki/stl/vector/begin'
p2010
S'stl/vector'
p2011
S'returns an iterator to the beginning'
p2012
tp2013
a(S'end'
p2014
S'www.cppreference.com/wiki/stl/vector/end'
p2015
S'stl/vector'
p2016
S'returns an iterator to the end'
p2017
tp2018
a(S'cend'
p2019
S'www.cppreference.com/wiki/stl/vector/end'
p2020
S'stl/vector'
p2021
S'returns an iterator to the end'
p2022
tp2023
a(S'rbegin'
p2024
S'www.cppreference.com/wiki/stl/vector/rbegin'
p2025
S'stl/vector'
p2026
S'returns a'
p2027
tp2028
a(S'crbegin'
p2029
S'www.cppreference.com/wiki/stl/vector/rbegin'
p2030
S'stl/vector'
p2031
S'returns a'
p2032
tp2033
a(S'rend'
p2034
S'www.cppreference.com/wiki/stl/vector/rend'
p2035
S'stl/vector'
p2036
S'returns a'
p2037
tp2038
a(S'crend'
p2039
S'www.cppreference.com/wiki/stl/vector/rend'
p2040
S'stl/vector'
p2041
S'returns a'
p2042
tp2043
a(S'empty'
p2044
S'www.cppreference.com/wiki/stl/vector/empty'
p2045
S'stl/vector'
p2046
S'checks whether the container is empty'
p2047
tp2048
a(S'size'
p2049
S'www.cppreference.com/wiki/stl/vector/size'
p2050
S'stl/vector'
p2051
S'returns the number of elements'
p2052
tp2053
a(S'max_size'
p2054
S'www.cppreference.com/wiki/stl/vector/max_size'
p2055
S'stl/vector'
p2056
S'returns the maximum number of elements'
p2057
tp2058
a(S'reserve'
p2059
S'www.cppreference.com/wiki/stl/vector/reserve'
p2060
S'stl/vector'
p2061
S'reserves storage'
p2062
tp2063
a(S'capacity'
p2064
S'www.cppreference.com/wiki/stl/vector/capacity'
p2065
S'stl/vector'
p2066
S'returns the number of elements that can be held in currently allocated storage'
p2067
tp2068
a(S'shrink_to_fit'
p2069
S'www.cppreference.com/wiki/stl/vector/shrink_to_fit'
p2070
S'stl/vector'
p2071
S'reduces memory usage by freeing unused memory ('
p2072
tp2073
a(S'clear'
p2074
S'www.cppreference.com/wiki/stl/vector/clear'
p2075
S'stl/vector'
p2076
S'removes all elements'
p2077
tp2078
a(S'insert'
p2079
S'www.cppreference.com/wiki/stl/vector/insert'
p2080
S'stl/vector'
p2081
S'inserts elements'
p2082
tp2083
a(S'emplace'
p2084
S'www.cppreference.com/wiki/stl/vector/emplace'
p2085
S'stl/vector'
p2086
g1029
tp2087
a(S'erase'
p2088
S'www.cppreference.com/wiki/stl/vector/erase'
p2089
S'stl/vector'
p2090
S'removes elements'
p2091
tp2092
a(S'push_back'
p2093
S'www.cppreference.com/wiki/stl/vector/push_back'
p2094
S'stl/vector'
p2095
S'inserts an element to the end'
p2096
tp2097
a(S'emplace_back'
p2098
S'www.cppreference.com/wiki/stl/vector/emplace_back'
p2099
S'stl/vector'
p2100
g1029
tp2101
a(S'pop_back'
p2102
S'www.cppreference.com/wiki/stl/vector/pop_back'
p2103
S'stl/vector'
p2104
S'removes the last element'
p2105
tp2106
a(S'resize'
p2107
S'www.cppreference.com/wiki/stl/vector/resize'
p2108
S'stl/vector'
p2109
S'changes the number of the elements stored'
p2110
tp2111
a(S'swap'
p2112
S'www.cppreference.com/wiki/stl/vector/swap'
p2113
S'stl/vector'
p2114
S'swaps the content'
p2115
tp2116
a(S'get_allocator'
p2117
S'www.cppreference.com/wiki/stl/vector/get_allocator'
p2118
S'stl/vector'
p2119
S'returns the allocator associated with the container'
p2120
tp2121
a(S'constructor'
p2122
S'www.cppreference.com/wiki/stl/deque/deque'
p2123
S'stl/deque'
p2124
S'constructs the container'
p2125
tp2126
a(S'operators'
p2127
S'www.cppreference.com/wiki/stl/deque/deque_operators'
p2128
S'stl/deque'
p2129
S'compare, assign, and access elements of a deque'
p2130
tp2131
a(S'operator='
p2132
S'www.cppreference.com/wiki/stl/deque/operator_as'
p2133
S'stl/deque'
p2134
S'assigns the contents of the container'
p2135
tp2136
a(S'assign'
p2137
S'www.cppreference.com/wiki/stl/deque/assign'
p2138
S'stl/deque'
p2139
S'assigns the contents of the container'
p2140
tp2141
a(S'at'
p2142
S'www.cppreference.com/wiki/stl/deque/at'
p2143
S'stl/deque'
p2144
S'access specified element with bounds checking'
p2145
tp2146
a(S'operator[]'
p2147
S'www.cppreference.com/wiki/stl/deque/operator_at'
p2148
S'stl/deque'
p2149
S'access specified element'
p2150
tp2151
a(S'front'
p2152
S'www.cppreference.com/wiki/stl/deque/front'
p2153
S'stl/deque'
p2154
S'access the first element'
p2155
tp2156
a(S'back'
p2157
S'www.cppreference.com/wiki/stl/deque/back'
p2158
S'stl/deque'
p2159
S'access the last element'
p2160
tp2161
a(S'begin'
p2162
S'www.cppreference.com/wiki/stl/deque/begin'
p2163
S'stl/deque'
p2164
S'returns an iterator to the beginning'
p2165
tp2166
a(S'cbegin'
p2167
S'www.cppreference.com/wiki/stl/deque/begin'
p2168
S'stl/deque'
p2169
S'returns an iterator to the beginning'
p2170
tp2171
a(S'end'
p2172
S'www.cppreference.com/wiki/stl/deque/end'
p2173
S'stl/deque'
p2174
S'returns an iterator to the end'
p2175
tp2176
a(S'cend'
p2177
S'www.cppreference.com/wiki/stl/deque/end'
p2178
S'stl/deque'
p2179
S'returns an iterator to the end'
p2180
tp2181
a(S'rbegin'
p2182
S'www.cppreference.com/wiki/stl/deque/rbegin'
p2183
S'stl/deque'
p2184
S'returns a'
p2185
tp2186
a(S'crbegin'
p2187
S'www.cppreference.com/wiki/stl/deque/rbegin'
p2188
S'stl/deque'
p2189
S'returns a'
p2190
tp2191
a(S'rend'
p2192
S'www.cppreference.com/wiki/stl/deque/rend'
p2193
S'stl/deque'
p2194
S'returns a'
p2195
tp2196
a(S'crend'
p2197
S'www.cppreference.com/wiki/stl/deque/rend'
p2198
S'stl/deque'
p2199
S'returns a'
p2200
tp2201
a(S'empty'
p2202
S'www.cppreference.com/wiki/stl/deque/empty'
p2203
S'stl/deque'
p2204
S'checks whether the container is empty'
p2205
tp2206
a(S'size'
p2207
S'www.cppreference.com/wiki/stl/deque/size'
p2208
S'stl/deque'
p2209
S'returns the number of elements'
p2210
tp2211
a(S'max_size'
p2212
S'www.cppreference.com/wiki/stl/deque/max_size'
p2213
S'stl/deque'
p2214
S'returns the maximum number of elements'
p2215
tp2216
a(S'shrink_to_fit'
p2217
S'www.cppreference.com/wiki/stl/deque/shrink_to_fit'
p2218
S'stl/deque'
p2219
S'reduces memory usage by freeing unused memory ('
p2220
tp2221
a(S'clear'
p2222
S'www.cppreference.com/wiki/stl/deque/clear'
p2223
S'stl/deque'
p2224
S'removes all elements'
p2225
tp2226
a(S'insert'
p2227
S'www.cppreference.com/wiki/stl/deque/insert'
p2228
S'stl/deque'
p2229
S'inserts elements'
p2230
tp2231
a(S'emplace'
p2232
S'www.cppreference.com/wiki/stl/deque/emplace'
p2233
S'stl/deque'
p2234
g1029
tp2235
a(S'erase'
p2236
S'www.cppreference.com/wiki/stl/deque/erase'
p2237
S'stl/deque'
p2238
S'removes elements'
p2239
tp2240
a(S'push_front'
p2241
S'www.cppreference.com/wiki/stl/deque/push_front'
p2242
S'stl/deque'
p2243
S'inserts an element to the beginning'
p2244
tp2245
a(S'emplace_front'
p2246
S'www.cppreference.com/wiki/stl/deque/emplace_front'
p2247
S'stl/deque'
p2248
g1029
tp2249
a(S'pop_front'
p2250
S'www.cppreference.com/wiki/stl/deque/pop_front'
p2251
S'stl/deque'
p2252
S'removes the first element'
p2253
tp2254
a(S'push_back'
p2255
S'www.cppreference.com/wiki/stl/deque/push_back'
p2256
S'stl/deque'
p2257
S'inserts an element to the end'
p2258
tp2259
a(S'emplace_back'
p2260
S'www.cppreference.com/wiki/stl/deque/emplace_back'
p2261
S'stl/deque'
p2262
g1029
tp2263
a(S'pop_back'
p2264
S'www.cppreference.com/wiki/stl/deque/pop_back'
p2265
S'stl/deque'
p2266
S'removes the last element'
p2267
tp2268
a(S'resize'
p2269
S'www.cppreference.com/wiki/stl/deque/resize'
p2270
S'stl/deque'
p2271
S'changes the number of the elements stored'
p2272
tp2273
a(S'swap'
p2274
S'www.cppreference.com/wiki/stl/deque/swap'
p2275
S'stl/deque'
p2276
S'swaps the contents'
p2277
tp2278
a(S'get_allocator'
p2279
S'www.cppreference.com/wiki/stl/deque/get_allocator'
p2280
S'stl/deque'
p2281
S'returns the allocator associated with the container'
p2282
tp2283
a(S'constructor'
p2284
S'www.cppreference.com/wiki/stl/list/list'
p2285
S'stl/list'
p2286
S'constructs the container'
p2287
tp2288
a(S'operators'
p2289
S'www.cppreference.com/wiki/stl/list/list_operators'
p2290
S'stl/list'
p2291
S'compare lists'
p2292
tp2293
a(S'operator='
p2294
S'www.cppreference.com/wiki/stl/list/operator_as'
p2295
S'stl/list'
p2296
S'assigns the contents of the container'
p2297
tp2298
a(S'assign'
p2299
S'www.cppreference.com/wiki/stl/list/assign'
p2300
S'stl/list'
p2301
S'assigns the contents of the container'
p2302
tp2303
a(S'front'
p2304
S'www.cppreference.com/wiki/stl/list/front'
p2305
S'stl/list'
p2306
S'access the first element'
p2307
tp2308
a(S'back'
p2309
S'www.cppreference.com/wiki/stl/list/back'
p2310
S'stl/list'
p2311
S'access the last element'
p2312
tp2313
a(S'begin'
p2314
S'www.cppreference.com/wiki/stl/list/begin'
p2315
S'stl/list'
p2316
S'returns an iterator to the beginning'
p2317
tp2318
a(S'cbegin'
p2319
S'www.cppreference.com/wiki/stl/list/begin'
p2320
S'stl/list'
p2321
S'returns an iterator to the beginning'
p2322
tp2323
a(S'end'
p2324
S'www.cppreference.com/wiki/stl/list/end'
p2325
S'stl/list'
p2326
S'returns an iterator to the end'
p2327
tp2328
a(S'cend'
p2329
S'www.cppreference.com/wiki/stl/list/end'
p2330
S'stl/list'
p2331
S'returns an iterator to the end'
p2332
tp2333
a(S'rbegin'
p2334
S'www.cppreference.com/wiki/stl/list/rbegin'
p2335
S'stl/list'
p2336
S'returns a'
p2337
tp2338
a(S'crbegin'
p2339
S'www.cppreference.com/wiki/stl/list/rbegin'
p2340
S'stl/list'
p2341
S'returns a'
p2342
tp2343
a(S'rend'
p2344
S'www.cppreference.com/wiki/stl/list/rend'
p2345
S'stl/list'
p2346
S'returns a'
p2347
tp2348
a(S'crend'
p2349
S'www.cppreference.com/wiki/stl/list/rend'
p2350
S'stl/list'
p2351
S'returns a'
p2352
tp2353
a(S'empty'
p2354
S'www.cppreference.com/wiki/stl/list/empty'
p2355
S'stl/list'
p2356
S'checks whether the container is empty'
p2357
tp2358
a(S'size'
p2359
S'www.cppreference.com/wiki/stl/list/size'
p2360
S'stl/list'
p2361
S'returns the number of elements'
p2362
tp2363
a(S'max_size'
p2364
S'www.cppreference.com/wiki/stl/list/max_size'
p2365
S'stl/list'
p2366
S'returns the maximum number of elements'
p2367
tp2368
a(S'clear'
p2369
S'www.cppreference.com/wiki/stl/list/clear'
p2370
S'stl/list'
p2371
S'removes all elements'
p2372
tp2373
a(S'insert'
p2374
S'www.cppreference.com/wiki/stl/list/insert'
p2375
S'stl/list'
p2376
S'inserts elements'
p2377
tp2378
a(S'emplace'
p2379
S'www.cppreference.com/wiki/stl/list/emplace'
p2380
S'stl/list'
p2381
g1029
tp2382
a(S'erase'
p2383
S'www.cppreference.com/wiki/stl/list/erase'
p2384
S'stl/list'
p2385
S'removes elements'
p2386
tp2387
a(S'push_front'
p2388
S'www.cppreference.com/wiki/stl/list/push_front'
p2389
S'stl/list'
p2390
S'inserts an element to the beginning'
p2391
tp2392
a(S'emplace_front'
p2393
S'www.cppreference.com/wiki/stl/list/emplace_front'
p2394
S'stl/list'
p2395
g1029
tp2396
a(S'pop_front'
p2397
S'www.cppreference.com/wiki/stl/list/pop_front'
p2398
S'stl/list'
p2399
S'removes the first element'
p2400
tp2401
a(S'push_back'
p2402
S'www.cppreference.com/wiki/stl/list/push_back'
p2403
S'stl/list'
p2404
S'inserts an element to the end'
p2405
tp2406
a(S'emplace_back'
p2407
S'www.cppreference.com/wiki/stl/list/emplace_back'
p2408
S'stl/list'
p2409
g1029
tp2410
a(S'pop_back'
p2411
S'www.cppreference.com/wiki/stl/list/pop_back'
p2412
S'stl/list'
p2413
S'removes the last element'
p2414
tp2415
a(S'resize'
p2416
S'www.cppreference.com/wiki/stl/list/resize'
p2417
S'stl/list'
p2418
S'changes the number of the elements stored'
p2419
tp2420
a(S'swap'
p2421
S'www.cppreference.com/wiki/stl/list/swap'
p2422
S'stl/list'
p2423
S'swaps the contents'
p2424
tp2425
a(S'merge'
p2426
S'www.cppreference.com/wiki/stl/list/merge'
p2427
S'stl/list'
p2428
S'merges two sorted lists'
p2429
tp2430
a(S'splice'
p2431
S'www.cppreference.com/wiki/stl/list/splice'
p2432
S'stl/list'
p2433
S'moves the elements between containers'
p2434
tp2435
a(S'remove'
p2436
S'www.cppreference.com/wiki/stl/list/remove'
p2437
S'stl/list'
p2438
S'removes elements with specific value'
p2439
tp2440
a(S'remove_if'
p2441
S'www.cppreference.com/wiki/stl/list/remove_if'
p2442
S'stl/list'
p2443
S'removes elements meeting specific criteria'
p2444
tp2445
a(S'reverse'
p2446
S'www.cppreference.com/wiki/stl/list/reverse'
p2447
S'stl/list'
p2448
S'reverses the order of the elements'
p2449
tp2450
a(S'unique'
p2451
S'www.cppreference.com/wiki/stl/list/unique'
p2452
S'stl/list'
p2453
S'removes consecutive duplicate elements'
p2454
tp2455
a(S'sort'
p2456
S'www.cppreference.com/wiki/stl/list/sort'
p2457
S'stl/list'
p2458
S'sorts the elements'
p2459
tp2460
a(S'get_allocator'
p2461
S'www.cppreference.com/wiki/stl/list/get_allocator'
p2462
S'stl/list'
p2463
S'returns the allocator associated with the container'
p2464
tp2465
a(S'constructors'
p2466
S'www.cppreference.com/wiki/stl/priority_queue/pqueue_constructors'
p2467
S'stl/priority_queue'
p2468
S'construct a new priority queue'
p2469
tp2470
a(S'top'
p2471
S'www.cppreference.com/wiki/stl/priority_queue/top'
p2472
S'stl/priority_queue'
p2473
S'access the first element'
p2474
tp2475
a(S'empty'
p2476
S'www.cppreference.com/wiki/stl/priority_queue/empty'
p2477
S'stl/priority_queue'
p2478
S'checks whether the container is empty'
p2479
tp2480
a(S'size'
p2481
S'www.cppreference.com/wiki/stl/priority_queue/size'
p2482
S'stl/priority_queue'
p2483
S'returns the number of elements'
p2484
tp2485
a(S'emplace'
p2486
S'www.cppreference.com/wiki/stl/priority_queue/emplace'
p2487
S'stl/priority_queue'
p2488
g1029
tp2489
a(S'push'
p2490
S'www.cppreference.com/wiki/stl/priority_queue/push'
p2491
S'stl/priority_queue'
p2492
S'inserts an element'
p2493
tp2494
a(S'pop'
p2495
S'www.cppreference.com/wiki/stl/priority_queue/pop'
p2496
S'stl/priority_queue'
p2497
S'removes the first element'
p2498
tp2499
a(S'swap'
p2500
S'www.cppreference.com/wiki/stl/priority_queue/swap'
p2501
S'stl/priority_queue'
p2502
S'swaps the contents ('
p2503
tp2504
a(S'constructors'
p2505
S'www.cppreference.com/wiki/stl/queue/queue_constructors'
p2506
S'stl/queue'
p2507
S'construct a new queue'
p2508
tp2509
a(S'front'
p2510
S'www.cppreference.com/wiki/stl/queue/front'
p2511
S'stl/queue'
p2512
S'access the first element'
p2513
tp2514
a(S'back'
p2515
S'www.cppreference.com/wiki/stl/queue/back'
p2516
S'stl/queue'
p2517
S'access the last element'
p2518
tp2519
a(S'empty'
p2520
S'www.cppreference.com/wiki/stl/queue/empty'
p2521
S'stl/queue'
p2522
S'checks whether the container is empty'
p2523
tp2524
a(S'size'
p2525
S'www.cppreference.com/wiki/stl/queue/size'
p2526
S'stl/queue'
p2527
S'returns the number of elements'
p2528
tp2529
a(S'emplace'
p2530
S'www.cppreference.com/wiki/stl/queue/emplace'
p2531
S'stl/queue'
p2532
g1029
tp2533
a(S'pop'
p2534
S'www.cppreference.com/wiki/stl/queue/pop'
p2535
S'stl/queue'
p2536
S'removes the first element'
p2537
tp2538
a(S'push'
p2539
S'www.cppreference.com/wiki/stl/queue/push'
p2540
S'stl/queue'
p2541
S'inserts an element to the end'
p2542
tp2543
a(S'swap'
p2544
S'www.cppreference.com/wiki/stl/queue/swap'
p2545
S'stl/queue'
p2546
S'swaps the contents ('
p2547
tp2548
a(S'constructors'
p2549
S'www.cppreference.com/wiki/stl/stack/stack_constructors'
p2550
S'stl/stack'
p2551
S'construct a new stack'
p2552
tp2553
a(S'top'
p2554
S'www.cppreference.com/wiki/stl/stack/top'
p2555
S'stl/stack'
p2556
S'access the first element'
p2557
tp2558
a(S'empty'
p2559
S'www.cppreference.com/wiki/stl/stack/empty'
p2560
S'stl/stack'
p2561
S'checks whether the container is empty'
p2562
tp2563
a(S'size'
p2564
S'www.cppreference.com/wiki/stl/stack/size'
p2565
S'stl/stack'
p2566
S'returns the number of elements'
p2567
tp2568
a(S'emplace'
p2569
S'www.cppreference.com/wiki/stl/stack/emplace'
p2570
S'stl/stack'
p2571
g1029
tp2572
a(S'push'
p2573
S'www.cppreference.com/wiki/stl/stack/push'
p2574
S'stl/stack'
p2575
S'inserts an element to the beginning'
p2576
tp2577
a(S'pop'
p2578
S'www.cppreference.com/wiki/stl/stack/pop'
p2579
S'stl/stack'
p2580
S'removes the first element'
p2581
tp2582
a(S'swap'
p2583
S'www.cppreference.com/wiki/stl/stack/swap'
p2584
S'stl/stack'
p2585
S'swaps the contents ('
p2586
tp2587
a(S'constructor'
p2588
S'www.cppreference.com/wiki/stl/set/set_constructors'
p2589
S'stl/set'
p2590
S'default methods to allocate, copy, and deallocate sets'
p2591
tp2592
a(S'operators'
p2593
S'www.cppreference.com/wiki/stl/set/set_operators'
p2594
S'stl/set'
p2595
S'assign and compare sets'
p2596
tp2597
a(S'begin'
p2598
S'www.cppreference.com/wiki/stl/set/begin'
p2599
S'stl/set'
p2600
S'returns an iterator to the beginning'
p2601
tp2602
a(S'cbegin'
p2603
S'www.cppreference.com/wiki/stl/set/begin'
p2604
S'stl/set'
p2605
S'returns an iterator to the beginning'
p2606
tp2607
a(S'end'
p2608
S'www.cppreference.com/wiki/stl/set/end'
p2609
S'stl/set'
p2610
S'returns an iterator to the end'
p2611
tp2612
a(S'cend'
p2613
S'www.cppreference.com/wiki/stl/set/end'
p2614
S'stl/set'
p2615
S'returns an iterator to the end'
p2616
tp2617
a(S'rbegin'
p2618
S'www.cppreference.com/wiki/stl/set/rbegin'
p2619
S'stl/set'
p2620
S'returns a'
p2621
tp2622
a(S'crbegin'
p2623
S'www.cppreference.com/wiki/stl/set/rbegin'
p2624
S'stl/set'
p2625
S'returns a'
p2626
tp2627
a(S'rend'
p2628
S'www.cppreference.com/wiki/stl/set/rend'
p2629
S'stl/set'
p2630
S'returns a'
p2631
tp2632
a(S'crend'
p2633
S'www.cppreference.com/wiki/stl/set/rend'
p2634
S'stl/set'
p2635
S'returns a'
p2636
tp2637
a(S'empty'
p2638
S'www.cppreference.com/wiki/stl/set/empty'
p2639
S'stl/set'
p2640
S'checks whether the container is empty'
p2641
tp2642
a(S'size'
p2643
S'www.cppreference.com/wiki/stl/set/size'
p2644
S'stl/set'
p2645
S'returns the number of elements'
p2646
tp2647
a(S'max_size'
p2648
S'www.cppreference.com/wiki/stl/set/max_size'
p2649
S'stl/set'
p2650
S'returns the maximum number of elements'
p2651
tp2652
a(S'clear'
p2653
S'www.cppreference.com/wiki/stl/set/clear'
p2654
S'stl/set'
p2655
S'removes all elements'
p2656
tp2657
a(S'erase'
p2658
S'www.cppreference.com/wiki/stl/set/erase'
p2659
S'stl/set'
p2660
S'removes elements'
p2661
tp2662
a(S'insert'
p2663
S'www.cppreference.com/wiki/stl/set/insert'
p2664
S'stl/set'
p2665
S'inserts elements'
p2666
tp2667
a(S'swap'
p2668
S'www.cppreference.com/wiki/stl/set/swap'
p2669
S'stl/set'
p2670
S'swaps the contents'
p2671
tp2672
a(S'count'
p2673
S'www.cppreference.com/wiki/stl/set/count'
p2674
S'stl/set'
p2675
S'returns the number of elements matching specific key'
p2676
tp2677
a(S'find'
p2678
S'www.cppreference.com/wiki/stl/set/find'
p2679
S'stl/set'
p2680
S'finds element with specific key'
p2681
tp2682
a(S'equal_range'
p2683
S'www.cppreference.com/wiki/stl/set/equal_range'
p2684
S'stl/set'
p2685
S'returns iterators to the first and just past the last elements matching a specific key'
p2686
tp2687
a(S'lower_bound'
p2688
S'www.cppreference.com/wiki/stl/set/lower_bound'
p2689
S'stl/set'
p2690
S'returns an iterator to the first element greater than or equal to a certain value'
p2691
tp2692
a(S'upper_bound'
p2693
S'www.cppreference.com/wiki/stl/set/upper_bound'
p2694
S'stl/set'
p2695
S'returns an iterator to the first element greater than a certain value'
p2696
tp2697
a(S'key_comp'
p2698
S'www.cppreference.com/wiki/stl/set/key_comp'
p2699
S'stl/set'
p2700
S'returns the function that compares keys'
p2701
tp2702
a(S'value_comp'
p2703
S'www.cppreference.com/wiki/stl/set/value_comp'
p2704
S'stl/set'
p2705
S'returns the function that compares values'
p2706
tp2707
a(S'get_allocator'
p2708
S'www.cppreference.com/wiki/stl/set/get_allocator'
p2709
S'stl/set'
p2710
S'returns the allocator associated with the container'
p2711
tp2712
a(S'operator []'
p2713
S'www.cppreference.com/wiki/stl/set/operator_at'
p2714
S'stl/set'
p2715
g1029
tp2716
a(S'constructor'
p2717
S'www.cppreference.com/wiki/stl/multiset/multiset_constructors'
p2718
S'stl/multiset'
p2719
S'default methods to allocate, copy, and deallocate multisets'
p2720
tp2721
a(S'operators'
p2722
S'www.cppreference.com/wiki/stl/multiset/multiset_operators'
p2723
S'stl/multiset'
p2724
S'assign and compare multisets'
p2725
tp2726
a(S'begin'
p2727
S'www.cppreference.com/wiki/stl/multiset/begin'
p2728
S'stl/multiset'
p2729
S'returns an iterator to the beginning'
p2730
tp2731
a(S'cbegin'
p2732
S'www.cppreference.com/wiki/stl/multiset/begin'
p2733
S'stl/multiset'
p2734
S'returns an iterator to the beginning'
p2735
tp2736
a(S'end'
p2737
S'www.cppreference.com/wiki/stl/multiset/end'
p2738
S'stl/multiset'
p2739
S'returns an iterator to the end'
p2740
tp2741
a(S'cend'
p2742
S'www.cppreference.com/wiki/stl/multiset/end'
p2743
S'stl/multiset'
p2744
S'returns an iterator to the end'
p2745
tp2746
a(S'rbegin'
p2747
S'www.cppreference.com/wiki/stl/multiset/rbegin'
p2748
S'stl/multiset'
p2749
S'returns a'
p2750
tp2751
a(S'crbegin'
p2752
S'www.cppreference.com/wiki/stl/multiset/rbegin'
p2753
S'stl/multiset'
p2754
S'returns a'
p2755
tp2756
a(S'rend'
p2757
S'www.cppreference.com/wiki/stl/multiset/rend'
p2758
S'stl/multiset'
p2759
S'returns a'
p2760
tp2761
a(S'crend'
p2762
S'www.cppreference.com/wiki/stl/multiset/rend'
p2763
S'stl/multiset'
p2764
S'returns a'
p2765
tp2766
a(S'empty'
p2767
S'www.cppreference.com/wiki/stl/multiset/empty'
p2768
S'stl/multiset'
p2769
S'checks whether the container is empty'
p2770
tp2771
a(S'size'
p2772
S'www.cppreference.com/wiki/stl/multiset/size'
p2773
S'stl/multiset'
p2774
S'returns the number of elements'
p2775
tp2776
a(S'max_size'
p2777
S'www.cppreference.com/wiki/stl/multiset/max_size'
p2778
S'stl/multiset'
p2779
S'returns the maximum number of elements'
p2780
tp2781
a(S'clear'
p2782
S'www.cppreference.com/wiki/stl/multiset/clear'
p2783
S'stl/multiset'
p2784
S'removes all elements'
p2785
tp2786
a(S'erase'
p2787
S'www.cppreference.com/wiki/stl/multiset/erase'
p2788
S'stl/multiset'
p2789
S'removes elements'
p2790
tp2791
a(S'insert'
p2792
S'www.cppreference.com/wiki/stl/multiset/insert'
p2793
S'stl/multiset'
p2794
S'inserts elements'
p2795
tp2796
a(S'swap'
p2797
S'www.cppreference.com/wiki/stl/multiset/swap'
p2798
S'stl/multiset'
p2799
S'swaps the contents'
p2800
tp2801
a(S'count'
p2802
S'www.cppreference.com/wiki/stl/multiset/count'
p2803
S'stl/multiset'
p2804
S'returns the number of elements matching specific key'
p2805
tp2806
a(S'find'
p2807
S'www.cppreference.com/wiki/stl/multiset/find'
p2808
S'stl/multiset'
p2809
S'finds element with specific key'
p2810
tp2811
a(S'equal_range'
p2812
S'www.cppreference.com/wiki/stl/multiset/equal_range'
p2813
S'stl/multiset'
p2814
S'returns iterators to the first and just past the last elements matching a specific key'
p2815
tp2816
a(S'lower_bound'
p2817
S'www.cppreference.com/wiki/stl/multiset/lower_bound'
p2818
S'stl/multiset'
p2819
S'returns an iterator to the first element greater than or equal to a certain value'
p2820
tp2821
a(S'upper_bound'
p2822
S'www.cppreference.com/wiki/stl/multiset/upper_bound'
p2823
S'stl/multiset'
p2824
S'returns an iterator to the first element greater than a certain value'
p2825
tp2826
a(S'key_comp'
p2827
S'www.cppreference.com/wiki/stl/multiset/key_comp'
p2828
S'stl/multiset'
p2829
S'returns the function that compares keys'
p2830
tp2831
a(S'value_comp'
p2832
S'www.cppreference.com/wiki/stl/multiset/value_comp'
p2833
S'stl/multiset'
p2834
S'returns the function that compares values'
p2835
tp2836
a(S'get_allocator'
p2837
S'www.cppreference.com/wiki/stl/multiset/get_allocator'
p2838
S'stl/multiset'
p2839
S'returns the allocator associated with the container'
p2840
tp2841
a(S'operator []'
p2842
S'www.cppreference.com/wiki/stl/multiset/operator_at'
p2843
S'stl/multiset'
p2844
g1029
tp2845
a(S'constructor'
p2846
S'www.cppreference.com/wiki/stl/map/map_constructors'
p2847
S'stl/map'
p2848
S'default methods to allocate, copy, and deallocate maps'
p2849
tp2850
a(S'operators'
p2851
S'www.cppreference.com/wiki/stl/map/map_operators'
p2852
S'stl/map'
p2853
S'assign, compare and access elements of a map'
p2854
tp2855
a(S'map_typedefs'
p2856
S'www.cppreference.com/wiki/stl/map/map_typedefs'
p2857
S'stl/map'
p2858
S'typedefs of a map'
p2859
tp2860
a(S'begin'
p2861
S'www.cppreference.com/wiki/stl/map/begin'
p2862
S'stl/map'
p2863
S'returns an iterator to the beginning'
p2864
tp2865
a(S'cbegin'
p2866
S'www.cppreference.com/wiki/stl/map/begin'
p2867
S'stl/map'
p2868
S'returns an iterator to the beginning'
p2869
tp2870
a(S'end'
p2871
S'www.cppreference.com/wiki/stl/map/end'
p2872
S'stl/map'
p2873
S'returns an iterator to the end'
p2874
tp2875
a(S'cend'
p2876
S'www.cppreference.com/wiki/stl/map/end'
p2877
S'stl/map'
p2878
S'returns an iterator to the end'
p2879
tp2880
a(S'rbegin'
p2881
S'www.cppreference.com/wiki/stl/map/rbegin'
p2882
S'stl/map'
p2883
S'returns a'
p2884
tp2885
a(S'crbegin'
p2886
S'www.cppreference.com/wiki/stl/map/rbegin'
p2887
S'stl/map'
p2888
S'returns a'
p2889
tp2890
a(S'rend'
p2891
S'www.cppreference.com/wiki/stl/map/rend'
p2892
S'stl/map'
p2893
S'returns a'
p2894
tp2895
a(S'crend'
p2896
S'www.cppreference.com/wiki/stl/map/rend'
p2897
S'stl/map'
p2898
S'returns a'
p2899
tp2900
a(S'empty'
p2901
S'www.cppreference.com/wiki/stl/map/empty'
p2902
S'stl/map'
p2903
S'checks whether the container is empty'
p2904
tp2905
a(S'size'
p2906
S'www.cppreference.com/wiki/stl/map/size'
p2907
S'stl/map'
p2908
S'returns the number of elements'
p2909
tp2910
a(S'max_size'
p2911
S'www.cppreference.com/wiki/stl/map/max_size'
p2912
S'stl/map'
p2913
S'returns the maximum number of elements'
p2914
tp2915
a(S'clear'
p2916
S'www.cppreference.com/wiki/stl/map/clear'
p2917
S'stl/map'
p2918
S'removes all elements'
p2919
tp2920
a(S'erase'
p2921
S'www.cppreference.com/wiki/stl/map/erase'
p2922
S'stl/map'
p2923
S'removes elements'
p2924
tp2925
a(S'insert'
p2926
S'www.cppreference.com/wiki/stl/map/insert'
p2927
S'stl/map'
p2928
S'inserts elements'
p2929
tp2930
a(S'swap'
p2931
S'www.cppreference.com/wiki/stl/map/swap'
p2932
S'stl/map'
p2933
S'swaps the contents'
p2934
tp2935
a(S'count'
p2936
S'www.cppreference.com/wiki/stl/map/count'
p2937
S'stl/map'
p2938
S'returns the number of elements matching specific key'
p2939
tp2940
a(S'find'
p2941
S'www.cppreference.com/wiki/stl/map/find'
p2942
S'stl/map'
p2943
S'finds element with specific key'
p2944
tp2945
a(S'equal_range'
p2946
S'www.cppreference.com/wiki/stl/map/equal_range'
p2947
S'stl/map'
p2948
S'returns iterators to the first and just past the last elements matching a specific key'
p2949
tp2950
a(S'lower_bound'
p2951
S'www.cppreference.com/wiki/stl/map/lower_bound'
p2952
S'stl/map'
p2953
S'returns an iterator to the first element greater than or equal to a certain value'
p2954
tp2955
a(S'upper_bound'
p2956
S'www.cppreference.com/wiki/stl/map/upper_bound'
p2957
S'stl/map'
p2958
S'returns an iterator to the first element greater than a certain value'
p2959
tp2960
a(S'key_comp'
p2961
S'www.cppreference.com/wiki/stl/map/key_comp'
p2962
S'stl/map'
p2963
S'returns the function that compares keys'
p2964
tp2965
a(S'value_comp'
p2966
S'www.cppreference.com/wiki/stl/map/value_comp'
p2967
S'stl/map'
p2968
S'returns the function that compares values'
p2969
tp2970
a(S'get_allocator'
p2971
S'www.cppreference.com/wiki/stl/map/get_allocator'
p2972
S'stl/map'
p2973
S'returns the allocator associated with the container'
p2974
tp2975
a(S'operator []'
p2976
S'www.cppreference.com/wiki/stl/map/operator_at'
p2977
S'stl/map'
p2978
g1029
tp2979
a(S'constructor'
p2980
S'www.cppreference.com/wiki/stl/multimap/multimap_constructors'
p2981
S'stl/multimap'
p2982
S'default methods to allocate, copy, and deallocate multimaps'
p2983
tp2984
a(S'operators'
p2985
S'www.cppreference.com/wiki/stl/multimap/multimap_operators'
p2986
S'stl/multimap'
p2987
S'assign and compare multimaps'
p2988
tp2989
a(S'begin'
p2990
S'www.cppreference.com/wiki/stl/multimap/begin'
p2991
S'stl/multimap'
p2992
S'returns an iterator to the beginning'
p2993
tp2994
a(S'cbegin'
p2995
S'www.cppreference.com/wiki/stl/multimap/begin'
p2996
S'stl/multimap'
p2997
S'returns an iterator to the beginning'
p2998
tp2999
a(S'end'
p3000
S'www.cppreference.com/wiki/stl/multimap/end'
p3001
S'stl/multimap'
p3002
S'returns an iterator to the end'
p3003
tp3004
a(S'cend'
p3005
S'www.cppreference.com/wiki/stl/multimap/end'
p3006
S'stl/multimap'
p3007
S'returns an iterator to the end'
p3008
tp3009
a(S'rbegin'
p3010
S'www.cppreference.com/wiki/stl/multimap/rbegin'
p3011
S'stl/multimap'
p3012
S'returns a'
p3013
tp3014
a(S'crbegin'
p3015
S'www.cppreference.com/wiki/stl/multimap/rbegin'
p3016
S'stl/multimap'
p3017
S'returns a'
p3018
tp3019
a(S'rend'
p3020
S'www.cppreference.com/wiki/stl/multimap/rend'
p3021
S'stl/multimap'
p3022
S'returns a'
p3023
tp3024
a(S'crend'
p3025
S'www.cppreference.com/wiki/stl/multimap/rend'
p3026
S'stl/multimap'
p3027
S'returns a'
p3028
tp3029
a(S'empty'
p3030
S'www.cppreference.com/wiki/stl/multimap/empty'
p3031
S'stl/multimap'
p3032
S'checks whether the container is empty'
p3033
tp3034
a(S'size'
p3035
S'www.cppreference.com/wiki/stl/multimap/size'
p3036
S'stl/multimap'
p3037
S'returns the number of elements'
p3038
tp3039
a(S'max_size'
p3040
S'www.cppreference.com/wiki/stl/multimap/max_size'
p3041
S'stl/multimap'
p3042
S'returns the maximum number of elements'
p3043
tp3044
a(S'clear'
p3045
S'www.cppreference.com/wiki/stl/multimap/clear'
p3046
S'stl/multimap'
p3047
S'removes all elements'
p3048
tp3049
a(S'erase'
p3050
S'www.cppreference.com/wiki/stl/multimap/erase'
p3051
S'stl/multimap'
p3052
S'removes elements'
p3053
tp3054
a(S'insert'
p3055
S'www.cppreference.com/wiki/stl/multimap/insert'
p3056
S'stl/multimap'
p3057
S'inserts elements'
p3058
tp3059
a(S'swap'
p3060
S'www.cppreference.com/wiki/stl/multimap/swap'
p3061
S'stl/multimap'
p3062
S'swaps the contents'
p3063
tp3064
a(S'count'
p3065
S'www.cppreference.com/wiki/stl/multimap/count'
p3066
S'stl/multimap'
p3067
S'returns the number of elements matching specific key'
p3068
tp3069
a(S'find'
p3070
S'www.cppreference.com/wiki/stl/multimap/find'
p3071
S'stl/multimap'
p3072
S'finds element with specific key'
p3073
tp3074
a(S'equal_range'
p3075
S'www.cppreference.com/wiki/stl/multimap/equal_range'
p3076
S'stl/multimap'
p3077
S'returns iterators to the first and just past the last elements matching a specific key'
p3078
tp3079
a(S'lower_bound'
p3080
S'www.cppreference.com/wiki/stl/multimap/lower_bound'
p3081
S'stl/multimap'
p3082
S'returns an iterator to the first element greater than or equal to a certain value'
p3083
tp3084
a(S'upper_bound'
p3085
S'www.cppreference.com/wiki/stl/multimap/upper_bound'
p3086
S'stl/multimap'
p3087
S'returns an iterator to the first element greater than a certain value'
p3088
tp3089
a(S'key_comp'
p3090
S'www.cppreference.com/wiki/stl/multimap/key_comp'
p3091
S'stl/multimap'
p3092
S'returns the function that compares keys'
p3093
tp3094
a(S'value_comp'
p3095
S'www.cppreference.com/wiki/stl/multimap/value_comp'
p3096
S'stl/multimap'
p3097
S'returns the function that compares values'
p3098
tp3099
a(S'get_allocator'
p3100
S'www.cppreference.com/wiki/stl/multimap/get_allocator'
p3101
S'stl/multimap'
p3102
S'returns the allocator associated with the container'
p3103
tp3104
a(S'operator []'
p3105
S'www.cppreference.com/wiki/stl/multimap/operator_at'
p3106
S'stl/multimap'
p3107
g1029
tp3108
a(S'constructors'
p3109
S'www.cppreference.com/wiki/stl/bitset/bitset_constructors'
p3110
S'stl/bitset'
p3111
S'create new bitsets'
p3112
tp3113
a(S'operators'
p3114
S'www.cppreference.com/wiki/stl/bitset/bitset_operators'
p3115
S'stl/bitset'
p3116
S'compare and assign bitsets'
p3117
tp3118
a(S'any'
p3119
S'www.cppreference.com/wiki/stl/bitset/any'
p3120
S'stl/bitset'
p3121
S'true if any bits are set'
p3122
tp3123
a(S'count'
p3124
S'www.cppreference.com/wiki/stl/bitset/count'
p3125
S'stl/bitset'
p3126
S'returns the number of set bits'
p3127
tp3128
a(S'flip'
p3129
S'www.cppreference.com/wiki/stl/bitset/flip'
p3130
S'stl/bitset'
p3131
S'reverses the bitset'
p3132
tp3133
a(S'none'
p3134
S'www.cppreference.com/wiki/stl/bitset/none'
p3135
S'stl/bitset'
p3136
S'true if no bits are set'
p3137
tp3138
a(S'reset'
p3139
S'www.cppreference.com/wiki/stl/bitset/reset'
p3140
S'stl/bitset'
p3141
S'sets a single bit or all bits to zero'
p3142
tp3143
a(S'set'
p3144
S'www.cppreference.com/wiki/stl/bitset/set'
p3145
S'stl/bitset'
p3146
S'sets a single bit or all bits'
p3147
tp3148
a(S'size'
p3149
S'www.cppreference.com/wiki/stl/bitset/size'
p3150
S'stl/bitset'
p3151
S'the number of bits that the bitset can hold'
p3152
tp3153
a(S'test'
p3154
S'www.cppreference.com/wiki/stl/bitset/test'
p3155
S'stl/bitset'
p3156
S'returns the value of a given bit'
p3157
tp3158
a(S'to_string'
p3159
S'www.cppreference.com/wiki/stl/bitset/to_string'
p3160
S'stl/bitset'
p3161
S'string representation of the bitset'
p3162
tp3163
a(S'to_ulong'
p3164
S'www.cppreference.com/wiki/stl/bitset/to_ulong'
p3165
S'stl/bitset'
p3166
S'returns an integer representation of the bitset'
p3167
tp3168
a(S'binary_function'
p3169
S'www.cppreference.com/wiki/stl/functional/binary_function'
p3170
S'stl/functional'
p3171
g1029
tp3172
a(S'binary_negate'
p3173
S'www.cppreference.com/wiki/stl/functional/binary_negate'
p3174
S'stl/functional'
p3175
g1029
tp3176
a(S'bind1st'
p3177
S'www.cppreference.com/wiki/stl/functional/bind1st'
p3178
S'stl/functional'
p3179
S'bind the first argument of the binary function'
p3180
tp3181
a(S'bind2nd'
p3182
S'www.cppreference.com/wiki/stl/functional/bind2nd'
p3183
S'stl/functional'
p3184
S'bind the second argument of the binary function'
p3185
tp3186
a(S'binder1st'
p3187
S'www.cppreference.com/wiki/stl/functional/binder1st'
p3188
S'stl/functional'
p3189
g1029
tp3190
a(S'binder2nd'
p3191
S'www.cppreference.com/wiki/stl/functional/binder2nd'
p3192
S'stl/functional'
p3193
g1029
tp3194
a(S'const_mem_fun1_ref_t'
p3195
S'www.cppreference.com/wiki/stl/functional/const_mem_fun1_ref_t'
p3196
S'stl/functional'
p3197
g1029
tp3198
a(S'const_mem_fun1_t'
p3199
S'www.cppreference.com/wiki/stl/functional/const_mem_fun1_t'
p3200
S'stl/functional'
p3201
g1029
tp3202
a(S'const_mem_fun_ref_t'
p3203
S'www.cppreference.com/wiki/stl/functional/const_mem_fun_ref_t'
p3204
S'stl/functional'
p3205
g1029
tp3206
a(S'const_mem_fun_t'
p3207
S'www.cppreference.com/wiki/stl/functional/const_mem_fun_t'
p3208
S'stl/functional'
p3209
g1029
tp3210
a(S'divides'
p3211
S'www.cppreference.com/wiki/stl/functional/divides'
p3212
S'stl/functional'
p3213
g1029
tp3214
a(S'equal_to'
p3215
S'www.cppreference.com/wiki/stl/functional/equal_to'
p3216
S'stl/functional'
p3217
S'whether the first argument is equal to the second argument'
p3218
tp3219
a(S'greater'
p3220
S'www.cppreference.com/wiki/stl/functional/greater'
p3221
S'stl/functional'
p3222
S'whether the first argument is greater than the second argument'
p3223
tp3224
a(S'greater_equal'
p3225
S'www.cppreference.com/wiki/stl/functional/greater_equal'
p3226
S'stl/functional'
p3227
S'whether the first argument is greater than or equal to the second argument'
p3228
tp3229
a(S'less'
p3230
S'www.cppreference.com/wiki/stl/functional/less'
p3231
S'stl/functional'
p3232
S'whether the first argument is less than the second argument'
p3233
tp3234
a(S'less_equal'
p3235
S'www.cppreference.com/wiki/stl/functional/less_equal'
p3236
S'stl/functional'
p3237
S'whether the first argument is less than or equal to the second argument'
p3238
tp3239
a(S'logical_and'
p3240
S'www.cppreference.com/wiki/stl/functional/logical_and'
p3241
S'stl/functional'
p3242
g1029
tp3243
a(S'logical_not'
p3244
S'www.cppreference.com/wiki/stl/functional/logical_not'
p3245
S'stl/functional'
p3246
g1029
tp3247
a(S'logical_or'
p3248
S'www.cppreference.com/wiki/stl/functional/logical_or'
p3249
S'stl/functional'
p3250
g1029
tp3251
a(S'mem_fun1_ref_t'
p3252
S'www.cppreference.com/wiki/stl/functional/mem_fun1_ref_t'
p3253
S'stl/functional'
p3254
g1029
tp3255
a(S'mem_fun1_t'
p3256
S'www.cppreference.com/wiki/stl/functional/mem_fun1_t'
p3257
S'stl/functional'
p3258
g1029
tp3259
a(S'mem_fun'
p3260
S'www.cppreference.com/wiki/stl/functional/mem_fun'
p3261
S'stl/functional'
p3262
S'construct a functor from a member function(pointer type)'
p3263
tp3264
a(S'mem_fun_ref'
p3265
S'www.cppreference.com/wiki/stl/functional/mem_fun_ref'
p3266
S'stl/functional'
p3267
S'construct a functor from a member function(reference type)'
p3268
tp3269
a(S'mem_fun_ref_t'
p3270
S'www.cppreference.com/wiki/stl/functional/mem_fun_ref_t'
p3271
S'stl/functional'
p3272
g1029
tp3273
a(S'mem_fun_t'
p3274
S'www.cppreference.com/wiki/stl/functional/mem_fun_t'
p3275
S'stl/functional'
p3276
g1029
tp3277
a(S'minus'
p3278
S'www.cppreference.com/wiki/stl/functional/minus'
p3279
S'stl/functional'
p3280
g1029
tp3281
a(S'modulus'
p3282
S'www.cppreference.com/wiki/stl/functional/modulus'
p3283
S'stl/functional'
p3284
g1029
tp3285
a(S'multiplies'
p3286
S'www.cppreference.com/wiki/stl/functional/multiplies'
p3287
S'stl/functional'
p3288
g1029
tp3289
a(S'negate'
p3290
S'www.cppreference.com/wiki/stl/functional/negate'
p3291
S'stl/functional'
p3292
g1029
tp3293
a(S'not1'
p3294
S'www.cppreference.com/wiki/stl/functional/not1'
p3295
S'stl/functional'
p3296
S'negation of a unary predicate'
p3297
tp3298
a(S'not2'
p3299
S'www.cppreference.com/wiki/stl/functional/not2'
p3300
S'stl/functional'
p3301
S'negation of a binary predicate'
p3302
tp3303
a(S'not_equal_to'
p3304
S'www.cppreference.com/wiki/stl/functional/not_equal_to'
p3305
S'stl/functional'
p3306
g1029
tp3307
a(S'plus'
p3308
S'www.cppreference.com/wiki/stl/functional/plus'
p3309
S'stl/functional'
p3310
g1029
tp3311
a(S'pointer_to_binary_function'
p3312
S'www.cppreference.com/wiki/stl/functional/pointer_to_binary_function'
p3313
S'stl/functional'
p3314
g1029
tp3315
a(S'pointer_to_unary_function'
p3316
S'www.cppreference.com/wiki/stl/functional/pointer_to_unary_function'
p3317
S'stl/functional'
p3318
g1029
tp3319
a(S'ptr_fun'
p3320
S'www.cppreference.com/wiki/stl/functional/ptr_fun'
p3321
S'stl/functional'
p3322
S'construct a functor from a function pointer'
p3323
tp3324
a(S'unary_function'
p3325
S'www.cppreference.com/wiki/stl/functional/unary_function'
p3326
S'stl/functional'
p3327
g1029
tp3328
a(S'unary_negate'
p3329
S'www.cppreference.com/wiki/stl/functional/unary_negate'
p3330
S'stl/functional'
p3331
g1029
tp3332
a(S'pair'
p3333
S'www.cppreference.com/wiki/stl/utility/pair'
p3334
S'stl/utility'
p3335
S'definition of a pair of values'
p3336
tp3337
a(S'make_pair'
p3338
S'www.cppreference.com/wiki/stl/utility/make_pair'
p3339
S'stl/utility'
p3340
S'create a pair'
p3341
tp3342
a.